
bin\Cacti.exe:     file format elf32-arcal

Disassembly of section .text:

00008000 <__entry0>:
    8000:	00 80 21 24 	lhi	r1,98304;	[0xc000000]
    8004:	00 00 21 50 	ori	r1,r1,0;	[0x0] 0xc000000 <_erodata+0xbfd8c44>
    8008:	10 00 40 24 	lhi	r2,16;	[0x8000]
    800c:	00 00 42 50 	ori	r2,r2,0;	[0x0] 0x8000 <_text>
    8010:	00 04 41 20 	sd32	r2,[r1,0]
    8014:	10 00 40 24 	lhi	r2,16;	[0x8000]
    8018:	00 01 42 50 	ori	r2,r2,256;	[0x100] 0x8100 <VBR>
    801c:	01 04 41 20 	sd32	r2,[r1,4]
    8020:	10 00 40 24 	lhi	r2,16;	[0x8000]
    8024:	3c 02 42 50 	ori	r2,r2,572;	[0x23c] 0x823c <__entry2>
    8028:	02 04 41 20 	sd32	r2,[r1,8]
    802c:	10 00 40 24 	lhi	r2,16;	[0x8000]
    8030:	78 03 42 50 	ori	r2,r2,888;	[0x378] 0x8378 <__entry3>
    8034:	03 04 41 20 	sd32	r2,[r1,12]
    8038:	10 00 40 24 	lhi	r2,16;	[0x8000]
    803c:	b4 04 42 50 	ori	r2,r2,1204;	[0x4b4] 0x84b4 <__entry4>
    8040:	04 04 41 20 	sd32	r2,[r1,16]
    8044:	10 00 40 24 	lhi	r2,16;	[0x8000]
    8048:	f0 05 42 50 	ori	r2,r2,1520;	[0x5f0] 0x85f0 <__entry5>
    804c:	05 04 41 20 	sd32	r2,[r1,20]
    8050:	10 00 40 24 	lhi	r2,16;	[0x8000]
    8054:	2c 07 42 50 	ori	r2,r2,1836;	[0x72c] 0x872c <__entry6>
    8058:	06 04 41 20 	sd32	r2,[r1,24]
    805c:	11 00 40 24 	lhi	r2,17;	[0x8800]
    8060:	68 00 42 50 	ori	r2,r2,104;	[0x68] 0x8868 <__entry7>
    8064:	07 04 41 20 	sd32	r2,[r1,28]
    8068:	3b 00 00 01 	addi	r8,r0,59
    806c:	7e 00 23 24 	lhi	r1,196734;	[0x1803f000]
    8070:	04 00 21 50 	ori	r1,r1,4;	[0x4] 0x1803f004 <IMR>
    8074:	ff ff 5f 24 	lhi	r2,2097151;	[0xfffff800]
    8078:	ff 07 42 50 	ori	r2,r2,2047;	[0x7ff] 0xffffffff <IPR+0xe7fc0fef>
    807c:	00 04 41 20 	sd32	r2,[r1,0]
    8080:	00 14 00 65 	wcr	r8,SR(0)
    8084:	03 80 21 24 	lhi	r1,98307;	[0xc001800]
    8088:	fc 07 21 50 	ori	r1,r1,2044;	[0x7fc] 0xc001ffc <_stack>
    808c:	12 00 00 25 	lhi	r8,18;	[0x9000]
    8090:	a0 01 08 51 	ori	r8,r8,416;	[0x1a0] 0x91a0 <init>
    8094:	00 08 48 02 	ja	r18,r8,0;	[0x0]
	...

00008100 <VBR>:
    8100:	78 03 21 00 	addi	r1,r1,-136
    8104:	21 04 e1 23 	sd32	r31,[r1,132]
    8108:	20 04 c1 23 	sd32	r30,[r1,128]
    810c:	1f 04 a1 23 	sd32	r29,[r1,124]
    8110:	1e 04 81 23 	sd32	r28,[r1,120]
    8114:	1d 04 61 23 	sd32	r27,[r1,116]
    8118:	1c 04 41 23 	sd32	r26,[r1,112]
    811c:	1b 04 21 23 	sd32	r25,[r1,108]
    8120:	1a 04 01 23 	sd32	r24,[r1,104]
    8124:	19 04 e1 22 	sd32	r23,[r1,100]
    8128:	18 04 c1 22 	sd32	r22,[r1,96]
    812c:	17 04 a1 22 	sd32	r21,[r1,92]
    8130:	16 04 81 22 	sd32	r20,[r1,88]
    8134:	15 04 61 22 	sd32	r19,[r1,84]
    8138:	14 04 41 22 	sd32	r18,[r1,80]
    813c:	13 04 21 22 	sd32	r17,[r1,76]
    8140:	12 04 01 22 	sd32	r16,[r1,72]
    8144:	11 04 e1 21 	sd32	r15,[r1,68]
    8148:	10 04 c1 21 	sd32	r14,[r1,64]
    814c:	0f 04 a1 21 	sd32	r13,[r1,60]
    8150:	0e 04 81 21 	sd32	r12,[r1,56]
    8154:	0d 04 61 21 	sd32	r11,[r1,52]
    8158:	0c 04 41 21 	sd32	r10,[r1,48]
    815c:	0b 04 21 21 	sd32	r9,[r1,44]
    8160:	0a 04 01 21 	sd32	r8,[r1,40]
    8164:	09 04 e1 20 	sd32	r7,[r1,36]
    8168:	08 04 c1 20 	sd32	r6,[r1,32]
    816c:	07 04 a1 20 	sd32	r5,[r1,28]
    8170:	06 04 81 20 	sd32	r4,[r1,24]
    8174:	05 04 61 20 	sd32	r3,[r1,20]
    8178:	04 04 41 20 	sd32	r2,[r1,16]
    817c:	03 04 21 20 	sd32	r1,[r1,12]
    8180:	02 04 01 20 	sd32	r0,[r1,8]
    8184:	02 10 40 64 	rcr	r2,EPC(2)
    8188:	01 04 41 20 	sd32	r2,[r1,4]
    818c:	01 10 40 64 	rcr	r2,ESR(1)
    8190:	00 04 41 20 	sd32	r2,[r1,0]
    8194:	02 00 01 08 	add	r2,r1,r0
    8198:	12 00 80 24 	lhi	r4,18;	[0x9000]
    819c:	74 05 84 50 	ori	r4,r4,1396;	[0x574] 0x9574 <do_entry1>
    81a0:	00 08 44 02 	ja	r18,r4,0;	[0x0]
    81a4:	00 04 00 08 	and	r0,r0,r0
    81a8:	21 00 e1 23 	ld32	r31,[r1,132]
    81ac:	20 00 c1 23 	ld32	r30,[r1,128]
    81b0:	1f 00 a1 23 	ld32	r29,[r1,124]
    81b4:	1e 00 81 23 	ld32	r28,[r1,120]
    81b8:	1d 00 61 23 	ld32	r27,[r1,116]
    81bc:	1c 00 41 23 	ld32	r26,[r1,112]
    81c0:	1b 00 21 23 	ld32	r25,[r1,108]
    81c4:	1a 00 01 23 	ld32	r24,[r1,104]
    81c8:	19 00 e1 22 	ld32	r23,[r1,100]
    81cc:	18 00 c1 22 	ld32	r22,[r1,96]
    81d0:	17 00 a1 22 	ld32	r21,[r1,92]
    81d4:	16 00 81 22 	ld32	r20,[r1,88]
    81d8:	15 00 61 22 	ld32	r19,[r1,84]
    81dc:	14 00 41 22 	ld32	r18,[r1,80]
    81e0:	13 00 21 22 	ld32	r17,[r1,76]
    81e4:	12 00 01 22 	ld32	r16,[r1,72]
    81e8:	11 00 e1 21 	ld32	r15,[r1,68]
    81ec:	10 00 c1 21 	ld32	r14,[r1,64]
    81f0:	0f 00 a1 21 	ld32	r13,[r1,60]
    81f4:	0e 00 81 21 	ld32	r12,[r1,56]
    81f8:	0d 00 61 21 	ld32	r11,[r1,52]
    81fc:	0c 00 41 21 	ld32	r10,[r1,48]
    8200:	0b 00 21 21 	ld32	r9,[r1,44]
    8204:	0a 00 01 21 	ld32	r8,[r1,40]
    8208:	09 00 e1 20 	ld32	r7,[r1,36]
    820c:	08 00 c1 20 	ld32	r6,[r1,32]
    8210:	07 00 a1 20 	ld32	r5,[r1,28]
    8214:	06 00 81 20 	ld32	r4,[r1,24]
    8218:	05 00 61 20 	ld32	r3,[r1,20]
    821c:	01 00 41 20 	ld32	r2,[r1,4]
    8220:	02 14 40 64 	wcr	r2,EPC(2)
    8224:	00 00 41 20 	ld32	r2,[r1,0]
    8228:	01 14 40 64 	wcr	r2,ESR(1)
    822c:	04 00 41 20 	ld32	r2,[r1,16]
    8230:	88 00 21 00 	addi	r1,r1,136
    8234:	00 04 00 64 	rte	
    8238:	00 04 00 08 	and	r0,r0,r0

0000823c <__entry2>:
    823c:	78 03 21 00 	addi	r1,r1,-136
    8240:	21 04 e1 23 	sd32	r31,[r1,132]
    8244:	20 04 c1 23 	sd32	r30,[r1,128]
    8248:	1f 04 a1 23 	sd32	r29,[r1,124]
    824c:	1e 04 81 23 	sd32	r28,[r1,120]
    8250:	1d 04 61 23 	sd32	r27,[r1,116]
    8254:	1c 04 41 23 	sd32	r26,[r1,112]
    8258:	1b 04 21 23 	sd32	r25,[r1,108]
    825c:	1a 04 01 23 	sd32	r24,[r1,104]
    8260:	19 04 e1 22 	sd32	r23,[r1,100]
    8264:	18 04 c1 22 	sd32	r22,[r1,96]
    8268:	17 04 a1 22 	sd32	r21,[r1,92]
    826c:	16 04 81 22 	sd32	r20,[r1,88]
    8270:	15 04 61 22 	sd32	r19,[r1,84]
    8274:	14 04 41 22 	sd32	r18,[r1,80]
    8278:	13 04 21 22 	sd32	r17,[r1,76]
    827c:	12 04 01 22 	sd32	r16,[r1,72]
    8280:	11 04 e1 21 	sd32	r15,[r1,68]
    8284:	10 04 c1 21 	sd32	r14,[r1,64]
    8288:	0f 04 a1 21 	sd32	r13,[r1,60]
    828c:	0e 04 81 21 	sd32	r12,[r1,56]
    8290:	0d 04 61 21 	sd32	r11,[r1,52]
    8294:	0c 04 41 21 	sd32	r10,[r1,48]
    8298:	0b 04 21 21 	sd32	r9,[r1,44]
    829c:	0a 04 01 21 	sd32	r8,[r1,40]
    82a0:	09 04 e1 20 	sd32	r7,[r1,36]
    82a4:	08 04 c1 20 	sd32	r6,[r1,32]
    82a8:	07 04 a1 20 	sd32	r5,[r1,28]
    82ac:	06 04 81 20 	sd32	r4,[r1,24]
    82b0:	05 04 61 20 	sd32	r3,[r1,20]
    82b4:	04 04 41 20 	sd32	r2,[r1,16]
    82b8:	03 04 21 20 	sd32	r1,[r1,12]
    82bc:	02 04 01 20 	sd32	r0,[r1,8]
    82c0:	02 10 40 64 	rcr	r2,EPC(2)
    82c4:	01 04 41 20 	sd32	r2,[r1,4]
    82c8:	01 10 40 64 	rcr	r2,ESR(1)
    82cc:	00 04 41 20 	sd32	r2,[r1,0]
    82d0:	02 00 01 08 	add	r2,r1,r0
    82d4:	12 00 80 24 	lhi	r4,18;	[0x9000]
    82d8:	94 05 84 50 	ori	r4,r4,1428;	[0x594] 0x9594 <do_entry2>
    82dc:	00 08 44 02 	ja	r18,r4,0;	[0x0]
    82e0:	00 04 00 08 	and	r0,r0,r0
    82e4:	21 00 e1 23 	ld32	r31,[r1,132]
    82e8:	20 00 c1 23 	ld32	r30,[r1,128]
    82ec:	1f 00 a1 23 	ld32	r29,[r1,124]
    82f0:	1e 00 81 23 	ld32	r28,[r1,120]
    82f4:	1d 00 61 23 	ld32	r27,[r1,116]
    82f8:	1c 00 41 23 	ld32	r26,[r1,112]
    82fc:	1b 00 21 23 	ld32	r25,[r1,108]
    8300:	1a 00 01 23 	ld32	r24,[r1,104]
    8304:	19 00 e1 22 	ld32	r23,[r1,100]
    8308:	18 00 c1 22 	ld32	r22,[r1,96]
    830c:	17 00 a1 22 	ld32	r21,[r1,92]
    8310:	16 00 81 22 	ld32	r20,[r1,88]
    8314:	15 00 61 22 	ld32	r19,[r1,84]
    8318:	14 00 41 22 	ld32	r18,[r1,80]
    831c:	13 00 21 22 	ld32	r17,[r1,76]
    8320:	12 00 01 22 	ld32	r16,[r1,72]
    8324:	11 00 e1 21 	ld32	r15,[r1,68]
    8328:	10 00 c1 21 	ld32	r14,[r1,64]
    832c:	0f 00 a1 21 	ld32	r13,[r1,60]
    8330:	0e 00 81 21 	ld32	r12,[r1,56]
    8334:	0d 00 61 21 	ld32	r11,[r1,52]
    8338:	0c 00 41 21 	ld32	r10,[r1,48]
    833c:	0b 00 21 21 	ld32	r9,[r1,44]
    8340:	0a 00 01 21 	ld32	r8,[r1,40]
    8344:	09 00 e1 20 	ld32	r7,[r1,36]
    8348:	08 00 c1 20 	ld32	r6,[r1,32]
    834c:	07 00 a1 20 	ld32	r5,[r1,28]
    8350:	06 00 81 20 	ld32	r4,[r1,24]
    8354:	05 00 61 20 	ld32	r3,[r1,20]
    8358:	01 00 41 20 	ld32	r2,[r1,4]
    835c:	02 14 40 64 	wcr	r2,EPC(2)
    8360:	00 00 41 20 	ld32	r2,[r1,0]
    8364:	01 14 40 64 	wcr	r2,ESR(1)
    8368:	04 00 41 20 	ld32	r2,[r1,16]
    836c:	88 00 21 00 	addi	r1,r1,136
    8370:	00 04 00 64 	rte	
    8374:	00 04 00 08 	and	r0,r0,r0

00008378 <__entry3>:
    8378:	78 03 21 00 	addi	r1,r1,-136
    837c:	21 04 e1 23 	sd32	r31,[r1,132]
    8380:	20 04 c1 23 	sd32	r30,[r1,128]
    8384:	1f 04 a1 23 	sd32	r29,[r1,124]
    8388:	1e 04 81 23 	sd32	r28,[r1,120]
    838c:	1d 04 61 23 	sd32	r27,[r1,116]
    8390:	1c 04 41 23 	sd32	r26,[r1,112]
    8394:	1b 04 21 23 	sd32	r25,[r1,108]
    8398:	1a 04 01 23 	sd32	r24,[r1,104]
    839c:	19 04 e1 22 	sd32	r23,[r1,100]
    83a0:	18 04 c1 22 	sd32	r22,[r1,96]
    83a4:	17 04 a1 22 	sd32	r21,[r1,92]
    83a8:	16 04 81 22 	sd32	r20,[r1,88]
    83ac:	15 04 61 22 	sd32	r19,[r1,84]
    83b0:	14 04 41 22 	sd32	r18,[r1,80]
    83b4:	13 04 21 22 	sd32	r17,[r1,76]
    83b8:	12 04 01 22 	sd32	r16,[r1,72]
    83bc:	11 04 e1 21 	sd32	r15,[r1,68]
    83c0:	10 04 c1 21 	sd32	r14,[r1,64]
    83c4:	0f 04 a1 21 	sd32	r13,[r1,60]
    83c8:	0e 04 81 21 	sd32	r12,[r1,56]
    83cc:	0d 04 61 21 	sd32	r11,[r1,52]
    83d0:	0c 04 41 21 	sd32	r10,[r1,48]
    83d4:	0b 04 21 21 	sd32	r9,[r1,44]
    83d8:	0a 04 01 21 	sd32	r8,[r1,40]
    83dc:	09 04 e1 20 	sd32	r7,[r1,36]
    83e0:	08 04 c1 20 	sd32	r6,[r1,32]
    83e4:	07 04 a1 20 	sd32	r5,[r1,28]
    83e8:	06 04 81 20 	sd32	r4,[r1,24]
    83ec:	05 04 61 20 	sd32	r3,[r1,20]
    83f0:	04 04 41 20 	sd32	r2,[r1,16]
    83f4:	03 04 21 20 	sd32	r1,[r1,12]
    83f8:	02 04 01 20 	sd32	r0,[r1,8]
    83fc:	02 10 40 64 	rcr	r2,EPC(2)
    8400:	01 04 41 20 	sd32	r2,[r1,4]
    8404:	01 10 40 64 	rcr	r2,ESR(1)
    8408:	00 04 41 20 	sd32	r2,[r1,0]
    840c:	02 00 01 08 	add	r2,r1,r0
    8410:	12 00 80 24 	lhi	r4,18;	[0x9000]
    8414:	c0 05 84 50 	ori	r4,r4,1472;	[0x5c0] 0x95c0 <do_entry3>
    8418:	00 08 44 02 	ja	r18,r4,0;	[0x0]
    841c:	00 04 00 08 	and	r0,r0,r0
    8420:	21 00 e1 23 	ld32	r31,[r1,132]
    8424:	20 00 c1 23 	ld32	r30,[r1,128]
    8428:	1f 00 a1 23 	ld32	r29,[r1,124]
    842c:	1e 00 81 23 	ld32	r28,[r1,120]
    8430:	1d 00 61 23 	ld32	r27,[r1,116]
    8434:	1c 00 41 23 	ld32	r26,[r1,112]
    8438:	1b 00 21 23 	ld32	r25,[r1,108]
    843c:	1a 00 01 23 	ld32	r24,[r1,104]
    8440:	19 00 e1 22 	ld32	r23,[r1,100]
    8444:	18 00 c1 22 	ld32	r22,[r1,96]
    8448:	17 00 a1 22 	ld32	r21,[r1,92]
    844c:	16 00 81 22 	ld32	r20,[r1,88]
    8450:	15 00 61 22 	ld32	r19,[r1,84]
    8454:	14 00 41 22 	ld32	r18,[r1,80]
    8458:	13 00 21 22 	ld32	r17,[r1,76]
    845c:	12 00 01 22 	ld32	r16,[r1,72]
    8460:	11 00 e1 21 	ld32	r15,[r1,68]
    8464:	10 00 c1 21 	ld32	r14,[r1,64]
    8468:	0f 00 a1 21 	ld32	r13,[r1,60]
    846c:	0e 00 81 21 	ld32	r12,[r1,56]
    8470:	0d 00 61 21 	ld32	r11,[r1,52]
    8474:	0c 00 41 21 	ld32	r10,[r1,48]
    8478:	0b 00 21 21 	ld32	r9,[r1,44]
    847c:	0a 00 01 21 	ld32	r8,[r1,40]
    8480:	09 00 e1 20 	ld32	r7,[r1,36]
    8484:	08 00 c1 20 	ld32	r6,[r1,32]
    8488:	07 00 a1 20 	ld32	r5,[r1,28]
    848c:	06 00 81 20 	ld32	r4,[r1,24]
    8490:	05 00 61 20 	ld32	r3,[r1,20]
    8494:	01 00 41 20 	ld32	r2,[r1,4]
    8498:	02 14 40 64 	wcr	r2,EPC(2)
    849c:	00 00 41 20 	ld32	r2,[r1,0]
    84a0:	01 14 40 64 	wcr	r2,ESR(1)
    84a4:	04 00 41 20 	ld32	r2,[r1,16]
    84a8:	88 00 21 00 	addi	r1,r1,136
    84ac:	00 04 00 64 	rte	
    84b0:	00 04 00 08 	and	r0,r0,r0

000084b4 <__entry4>:
    84b4:	78 03 21 00 	addi	r1,r1,-136
    84b8:	21 04 e1 23 	sd32	r31,[r1,132]
    84bc:	20 04 c1 23 	sd32	r30,[r1,128]
    84c0:	1f 04 a1 23 	sd32	r29,[r1,124]
    84c4:	1e 04 81 23 	sd32	r28,[r1,120]
    84c8:	1d 04 61 23 	sd32	r27,[r1,116]
    84cc:	1c 04 41 23 	sd32	r26,[r1,112]
    84d0:	1b 04 21 23 	sd32	r25,[r1,108]
    84d4:	1a 04 01 23 	sd32	r24,[r1,104]
    84d8:	19 04 e1 22 	sd32	r23,[r1,100]
    84dc:	18 04 c1 22 	sd32	r22,[r1,96]
    84e0:	17 04 a1 22 	sd32	r21,[r1,92]
    84e4:	16 04 81 22 	sd32	r20,[r1,88]
    84e8:	15 04 61 22 	sd32	r19,[r1,84]
    84ec:	14 04 41 22 	sd32	r18,[r1,80]
    84f0:	13 04 21 22 	sd32	r17,[r1,76]
    84f4:	12 04 01 22 	sd32	r16,[r1,72]
    84f8:	11 04 e1 21 	sd32	r15,[r1,68]
    84fc:	10 04 c1 21 	sd32	r14,[r1,64]
    8500:	0f 04 a1 21 	sd32	r13,[r1,60]
    8504:	0e 04 81 21 	sd32	r12,[r1,56]
    8508:	0d 04 61 21 	sd32	r11,[r1,52]
    850c:	0c 04 41 21 	sd32	r10,[r1,48]
    8510:	0b 04 21 21 	sd32	r9,[r1,44]
    8514:	0a 04 01 21 	sd32	r8,[r1,40]
    8518:	09 04 e1 20 	sd32	r7,[r1,36]
    851c:	08 04 c1 20 	sd32	r6,[r1,32]
    8520:	07 04 a1 20 	sd32	r5,[r1,28]
    8524:	06 04 81 20 	sd32	r4,[r1,24]
    8528:	05 04 61 20 	sd32	r3,[r1,20]
    852c:	04 04 41 20 	sd32	r2,[r1,16]
    8530:	03 04 21 20 	sd32	r1,[r1,12]
    8534:	02 04 01 20 	sd32	r0,[r1,8]
    8538:	02 10 40 64 	rcr	r2,EPC(2)
    853c:	01 04 41 20 	sd32	r2,[r1,4]
    8540:	01 10 40 64 	rcr	r2,ESR(1)
    8544:	00 04 41 20 	sd32	r2,[r1,0]
    8548:	02 00 01 08 	add	r2,r1,r0
    854c:	13 00 80 24 	lhi	r4,19;	[0x9800]
    8550:	24 05 84 50 	ori	r4,r4,1316;	[0x524] 0x9d24 <do_entry4>
    8554:	00 08 44 02 	ja	r18,r4,0;	[0x0]
    8558:	00 04 00 08 	and	r0,r0,r0
    855c:	21 00 e1 23 	ld32	r31,[r1,132]
    8560:	20 00 c1 23 	ld32	r30,[r1,128]
    8564:	1f 00 a1 23 	ld32	r29,[r1,124]
    8568:	1e 00 81 23 	ld32	r28,[r1,120]
    856c:	1d 00 61 23 	ld32	r27,[r1,116]
    8570:	1c 00 41 23 	ld32	r26,[r1,112]
    8574:	1b 00 21 23 	ld32	r25,[r1,108]
    8578:	1a 00 01 23 	ld32	r24,[r1,104]
    857c:	19 00 e1 22 	ld32	r23,[r1,100]
    8580:	18 00 c1 22 	ld32	r22,[r1,96]
    8584:	17 00 a1 22 	ld32	r21,[r1,92]
    8588:	16 00 81 22 	ld32	r20,[r1,88]
    858c:	15 00 61 22 	ld32	r19,[r1,84]
    8590:	14 00 41 22 	ld32	r18,[r1,80]
    8594:	13 00 21 22 	ld32	r17,[r1,76]
    8598:	12 00 01 22 	ld32	r16,[r1,72]
    859c:	11 00 e1 21 	ld32	r15,[r1,68]
    85a0:	10 00 c1 21 	ld32	r14,[r1,64]
    85a4:	0f 00 a1 21 	ld32	r13,[r1,60]
    85a8:	0e 00 81 21 	ld32	r12,[r1,56]
    85ac:	0d 00 61 21 	ld32	r11,[r1,52]
    85b0:	0c 00 41 21 	ld32	r10,[r1,48]
    85b4:	0b 00 21 21 	ld32	r9,[r1,44]
    85b8:	0a 00 01 21 	ld32	r8,[r1,40]
    85bc:	09 00 e1 20 	ld32	r7,[r1,36]
    85c0:	08 00 c1 20 	ld32	r6,[r1,32]
    85c4:	07 00 a1 20 	ld32	r5,[r1,28]
    85c8:	06 00 81 20 	ld32	r4,[r1,24]
    85cc:	05 00 61 20 	ld32	r3,[r1,20]
    85d0:	01 00 41 20 	ld32	r2,[r1,4]
    85d4:	02 14 40 64 	wcr	r2,EPC(2)
    85d8:	00 00 41 20 	ld32	r2,[r1,0]
    85dc:	01 14 40 64 	wcr	r2,ESR(1)
    85e0:	04 00 41 20 	ld32	r2,[r1,16]
    85e4:	88 00 21 00 	addi	r1,r1,136
    85e8:	00 04 00 64 	rte	
    85ec:	00 04 00 08 	and	r0,r0,r0

000085f0 <__entry5>:
    85f0:	78 03 21 00 	addi	r1,r1,-136
    85f4:	21 04 e1 23 	sd32	r31,[r1,132]
    85f8:	20 04 c1 23 	sd32	r30,[r1,128]
    85fc:	1f 04 a1 23 	sd32	r29,[r1,124]
    8600:	1e 04 81 23 	sd32	r28,[r1,120]
    8604:	1d 04 61 23 	sd32	r27,[r1,116]
    8608:	1c 04 41 23 	sd32	r26,[r1,112]
    860c:	1b 04 21 23 	sd32	r25,[r1,108]
    8610:	1a 04 01 23 	sd32	r24,[r1,104]
    8614:	19 04 e1 22 	sd32	r23,[r1,100]
    8618:	18 04 c1 22 	sd32	r22,[r1,96]
    861c:	17 04 a1 22 	sd32	r21,[r1,92]
    8620:	16 04 81 22 	sd32	r20,[r1,88]
    8624:	15 04 61 22 	sd32	r19,[r1,84]
    8628:	14 04 41 22 	sd32	r18,[r1,80]
    862c:	13 04 21 22 	sd32	r17,[r1,76]
    8630:	12 04 01 22 	sd32	r16,[r1,72]
    8634:	11 04 e1 21 	sd32	r15,[r1,68]
    8638:	10 04 c1 21 	sd32	r14,[r1,64]
    863c:	0f 04 a1 21 	sd32	r13,[r1,60]
    8640:	0e 04 81 21 	sd32	r12,[r1,56]
    8644:	0d 04 61 21 	sd32	r11,[r1,52]
    8648:	0c 04 41 21 	sd32	r10,[r1,48]
    864c:	0b 04 21 21 	sd32	r9,[r1,44]
    8650:	0a 04 01 21 	sd32	r8,[r1,40]
    8654:	09 04 e1 20 	sd32	r7,[r1,36]
    8658:	08 04 c1 20 	sd32	r6,[r1,32]
    865c:	07 04 a1 20 	sd32	r5,[r1,28]
    8660:	06 04 81 20 	sd32	r4,[r1,24]
    8664:	05 04 61 20 	sd32	r3,[r1,20]
    8668:	04 04 41 20 	sd32	r2,[r1,16]
    866c:	03 04 21 20 	sd32	r1,[r1,12]
    8670:	02 04 01 20 	sd32	r0,[r1,8]
    8674:	02 10 40 64 	rcr	r2,EPC(2)
    8678:	01 04 41 20 	sd32	r2,[r1,4]
    867c:	01 10 40 64 	rcr	r2,ESR(1)
    8680:	00 04 41 20 	sd32	r2,[r1,0]
    8684:	02 00 01 08 	add	r2,r1,r0
    8688:	12 00 80 24 	lhi	r4,18;	[0x9000]
    868c:	e0 05 84 50 	ori	r4,r4,1504;	[0x5e0] 0x95e0 <do_entry5>
    8690:	00 08 44 02 	ja	r18,r4,0;	[0x0]
    8694:	00 04 00 08 	and	r0,r0,r0
    8698:	21 00 e1 23 	ld32	r31,[r1,132]
    869c:	20 00 c1 23 	ld32	r30,[r1,128]
    86a0:	1f 00 a1 23 	ld32	r29,[r1,124]
    86a4:	1e 00 81 23 	ld32	r28,[r1,120]
    86a8:	1d 00 61 23 	ld32	r27,[r1,116]
    86ac:	1c 00 41 23 	ld32	r26,[r1,112]
    86b0:	1b 00 21 23 	ld32	r25,[r1,108]
    86b4:	1a 00 01 23 	ld32	r24,[r1,104]
    86b8:	19 00 e1 22 	ld32	r23,[r1,100]
    86bc:	18 00 c1 22 	ld32	r22,[r1,96]
    86c0:	17 00 a1 22 	ld32	r21,[r1,92]
    86c4:	16 00 81 22 	ld32	r20,[r1,88]
    86c8:	15 00 61 22 	ld32	r19,[r1,84]
    86cc:	14 00 41 22 	ld32	r18,[r1,80]
    86d0:	13 00 21 22 	ld32	r17,[r1,76]
    86d4:	12 00 01 22 	ld32	r16,[r1,72]
    86d8:	11 00 e1 21 	ld32	r15,[r1,68]
    86dc:	10 00 c1 21 	ld32	r14,[r1,64]
    86e0:	0f 00 a1 21 	ld32	r13,[r1,60]
    86e4:	0e 00 81 21 	ld32	r12,[r1,56]
    86e8:	0d 00 61 21 	ld32	r11,[r1,52]
    86ec:	0c 00 41 21 	ld32	r10,[r1,48]
    86f0:	0b 00 21 21 	ld32	r9,[r1,44]
    86f4:	0a 00 01 21 	ld32	r8,[r1,40]
    86f8:	09 00 e1 20 	ld32	r7,[r1,36]
    86fc:	08 00 c1 20 	ld32	r6,[r1,32]
    8700:	07 00 a1 20 	ld32	r5,[r1,28]
    8704:	06 00 81 20 	ld32	r4,[r1,24]
    8708:	05 00 61 20 	ld32	r3,[r1,20]
    870c:	01 00 41 20 	ld32	r2,[r1,4]
    8710:	02 14 40 64 	wcr	r2,EPC(2)
    8714:	00 00 41 20 	ld32	r2,[r1,0]
    8718:	01 14 40 64 	wcr	r2,ESR(1)
    871c:	04 00 41 20 	ld32	r2,[r1,16]
    8720:	88 00 21 00 	addi	r1,r1,136
    8724:	00 04 00 64 	rte	
    8728:	00 04 00 08 	and	r0,r0,r0

0000872c <__entry6>:
    872c:	78 03 21 00 	addi	r1,r1,-136
    8730:	21 04 e1 23 	sd32	r31,[r1,132]
    8734:	20 04 c1 23 	sd32	r30,[r1,128]
    8738:	1f 04 a1 23 	sd32	r29,[r1,124]
    873c:	1e 04 81 23 	sd32	r28,[r1,120]
    8740:	1d 04 61 23 	sd32	r27,[r1,116]
    8744:	1c 04 41 23 	sd32	r26,[r1,112]
    8748:	1b 04 21 23 	sd32	r25,[r1,108]
    874c:	1a 04 01 23 	sd32	r24,[r1,104]
    8750:	19 04 e1 22 	sd32	r23,[r1,100]
    8754:	18 04 c1 22 	sd32	r22,[r1,96]
    8758:	17 04 a1 22 	sd32	r21,[r1,92]
    875c:	16 04 81 22 	sd32	r20,[r1,88]
    8760:	15 04 61 22 	sd32	r19,[r1,84]
    8764:	14 04 41 22 	sd32	r18,[r1,80]
    8768:	13 04 21 22 	sd32	r17,[r1,76]
    876c:	12 04 01 22 	sd32	r16,[r1,72]
    8770:	11 04 e1 21 	sd32	r15,[r1,68]
    8774:	10 04 c1 21 	sd32	r14,[r1,64]
    8778:	0f 04 a1 21 	sd32	r13,[r1,60]
    877c:	0e 04 81 21 	sd32	r12,[r1,56]
    8780:	0d 04 61 21 	sd32	r11,[r1,52]
    8784:	0c 04 41 21 	sd32	r10,[r1,48]
    8788:	0b 04 21 21 	sd32	r9,[r1,44]
    878c:	0a 04 01 21 	sd32	r8,[r1,40]
    8790:	09 04 e1 20 	sd32	r7,[r1,36]
    8794:	08 04 c1 20 	sd32	r6,[r1,32]
    8798:	07 04 a1 20 	sd32	r5,[r1,28]
    879c:	06 04 81 20 	sd32	r4,[r1,24]
    87a0:	05 04 61 20 	sd32	r3,[r1,20]
    87a4:	04 04 41 20 	sd32	r2,[r1,16]
    87a8:	03 04 21 20 	sd32	r1,[r1,12]
    87ac:	02 04 01 20 	sd32	r0,[r1,8]
    87b0:	02 10 40 64 	rcr	r2,EPC(2)
    87b4:	01 04 41 20 	sd32	r2,[r1,4]
    87b8:	01 10 40 64 	rcr	r2,ESR(1)
    87bc:	00 04 41 20 	sd32	r2,[r1,0]
    87c0:	02 00 01 08 	add	r2,r1,r0
    87c4:	12 00 80 24 	lhi	r4,18;	[0x9000]
    87c8:	4c 06 84 50 	ori	r4,r4,1612;	[0x64c] 0x964c <do_entry6>
    87cc:	00 08 44 02 	ja	r18,r4,0;	[0x0]
    87d0:	00 04 00 08 	and	r0,r0,r0
    87d4:	21 00 e1 23 	ld32	r31,[r1,132]
    87d8:	20 00 c1 23 	ld32	r30,[r1,128]
    87dc:	1f 00 a1 23 	ld32	r29,[r1,124]
    87e0:	1e 00 81 23 	ld32	r28,[r1,120]
    87e4:	1d 00 61 23 	ld32	r27,[r1,116]
    87e8:	1c 00 41 23 	ld32	r26,[r1,112]
    87ec:	1b 00 21 23 	ld32	r25,[r1,108]
    87f0:	1a 00 01 23 	ld32	r24,[r1,104]
    87f4:	19 00 e1 22 	ld32	r23,[r1,100]
    87f8:	18 00 c1 22 	ld32	r22,[r1,96]
    87fc:	17 00 a1 22 	ld32	r21,[r1,92]
    8800:	16 00 81 22 	ld32	r20,[r1,88]
    8804:	15 00 61 22 	ld32	r19,[r1,84]
    8808:	14 00 41 22 	ld32	r18,[r1,80]
    880c:	13 00 21 22 	ld32	r17,[r1,76]
    8810:	12 00 01 22 	ld32	r16,[r1,72]
    8814:	11 00 e1 21 	ld32	r15,[r1,68]
    8818:	10 00 c1 21 	ld32	r14,[r1,64]
    881c:	0f 00 a1 21 	ld32	r13,[r1,60]
    8820:	0e 00 81 21 	ld32	r12,[r1,56]
    8824:	0d 00 61 21 	ld32	r11,[r1,52]
    8828:	0c 00 41 21 	ld32	r10,[r1,48]
    882c:	0b 00 21 21 	ld32	r9,[r1,44]
    8830:	0a 00 01 21 	ld32	r8,[r1,40]
    8834:	09 00 e1 20 	ld32	r7,[r1,36]
    8838:	08 00 c1 20 	ld32	r6,[r1,32]
    883c:	07 00 a1 20 	ld32	r5,[r1,28]
    8840:	06 00 81 20 	ld32	r4,[r1,24]
    8844:	05 00 61 20 	ld32	r3,[r1,20]
    8848:	01 00 41 20 	ld32	r2,[r1,4]
    884c:	02 14 40 64 	wcr	r2,EPC(2)
    8850:	00 00 41 20 	ld32	r2,[r1,0]
    8854:	01 14 40 64 	wcr	r2,ESR(1)
    8858:	04 00 41 20 	ld32	r2,[r1,16]
    885c:	88 00 21 00 	addi	r1,r1,136
    8860:	00 04 00 64 	rte	
    8864:	00 04 00 08 	and	r0,r0,r0

00008868 <__entry7>:
    8868:	78 03 21 00 	addi	r1,r1,-136
    886c:	21 04 e1 23 	sd32	r31,[r1,132]
    8870:	20 04 c1 23 	sd32	r30,[r1,128]
    8874:	1f 04 a1 23 	sd32	r29,[r1,124]
    8878:	1e 04 81 23 	sd32	r28,[r1,120]
    887c:	1d 04 61 23 	sd32	r27,[r1,116]
    8880:	1c 04 41 23 	sd32	r26,[r1,112]
    8884:	1b 04 21 23 	sd32	r25,[r1,108]
    8888:	1a 04 01 23 	sd32	r24,[r1,104]
    888c:	19 04 e1 22 	sd32	r23,[r1,100]
    8890:	18 04 c1 22 	sd32	r22,[r1,96]
    8894:	17 04 a1 22 	sd32	r21,[r1,92]
    8898:	16 04 81 22 	sd32	r20,[r1,88]
    889c:	15 04 61 22 	sd32	r19,[r1,84]
    88a0:	14 04 41 22 	sd32	r18,[r1,80]
    88a4:	13 04 21 22 	sd32	r17,[r1,76]
    88a8:	12 04 01 22 	sd32	r16,[r1,72]
    88ac:	11 04 e1 21 	sd32	r15,[r1,68]
    88b0:	10 04 c1 21 	sd32	r14,[r1,64]
    88b4:	0f 04 a1 21 	sd32	r13,[r1,60]
    88b8:	0e 04 81 21 	sd32	r12,[r1,56]
    88bc:	0d 04 61 21 	sd32	r11,[r1,52]
    88c0:	0c 04 41 21 	sd32	r10,[r1,48]
    88c4:	0b 04 21 21 	sd32	r9,[r1,44]
    88c8:	0a 04 01 21 	sd32	r8,[r1,40]
    88cc:	09 04 e1 20 	sd32	r7,[r1,36]
    88d0:	08 04 c1 20 	sd32	r6,[r1,32]
    88d4:	07 04 a1 20 	sd32	r5,[r1,28]
    88d8:	06 04 81 20 	sd32	r4,[r1,24]
    88dc:	05 04 61 20 	sd32	r3,[r1,20]
    88e0:	04 04 41 20 	sd32	r2,[r1,16]
    88e4:	03 04 21 20 	sd32	r1,[r1,12]
    88e8:	02 04 01 20 	sd32	r0,[r1,8]
    88ec:	02 10 40 64 	rcr	r2,EPC(2)
    88f0:	01 04 41 20 	sd32	r2,[r1,4]
    88f4:	01 10 40 64 	rcr	r2,ESR(1)
    88f8:	00 04 41 20 	sd32	r2,[r1,0]
    88fc:	02 00 01 08 	add	r2,r1,r0
    8900:	13 00 80 24 	lhi	r4,19;	[0x9800]
    8904:	5c 07 84 50 	ori	r4,r4,1884;	[0x75c] 0x9f5c <do_entry7>
    8908:	00 08 44 02 	ja	r18,r4,0;	[0x0]
    890c:	00 04 00 08 	and	r0,r0,r0
    8910:	21 00 e1 23 	ld32	r31,[r1,132]
    8914:	20 00 c1 23 	ld32	r30,[r1,128]
    8918:	1f 00 a1 23 	ld32	r29,[r1,124]
    891c:	1e 00 81 23 	ld32	r28,[r1,120]
    8920:	1d 00 61 23 	ld32	r27,[r1,116]
    8924:	1c 00 41 23 	ld32	r26,[r1,112]
    8928:	1b 00 21 23 	ld32	r25,[r1,108]
    892c:	1a 00 01 23 	ld32	r24,[r1,104]
    8930:	19 00 e1 22 	ld32	r23,[r1,100]
    8934:	18 00 c1 22 	ld32	r22,[r1,96]
    8938:	17 00 a1 22 	ld32	r21,[r1,92]
    893c:	16 00 81 22 	ld32	r20,[r1,88]
    8940:	15 00 61 22 	ld32	r19,[r1,84]
    8944:	14 00 41 22 	ld32	r18,[r1,80]
    8948:	13 00 21 22 	ld32	r17,[r1,76]
    894c:	12 00 01 22 	ld32	r16,[r1,72]
    8950:	11 00 e1 21 	ld32	r15,[r1,68]
    8954:	10 00 c1 21 	ld32	r14,[r1,64]
    8958:	0f 00 a1 21 	ld32	r13,[r1,60]
    895c:	0e 00 81 21 	ld32	r12,[r1,56]
    8960:	0d 00 61 21 	ld32	r11,[r1,52]
    8964:	0c 00 41 21 	ld32	r10,[r1,48]
    8968:	0b 00 21 21 	ld32	r9,[r1,44]
    896c:	0a 00 01 21 	ld32	r8,[r1,40]
    8970:	09 00 e1 20 	ld32	r7,[r1,36]
    8974:	08 00 c1 20 	ld32	r6,[r1,32]
    8978:	07 00 a1 20 	ld32	r5,[r1,28]
    897c:	06 00 81 20 	ld32	r4,[r1,24]
    8980:	05 00 61 20 	ld32	r3,[r1,20]
    8984:	01 00 41 20 	ld32	r2,[r1,4]
    8988:	02 14 40 64 	wcr	r2,EPC(2)
    898c:	00 00 41 20 	ld32	r2,[r1,0]
    8990:	01 14 40 64 	wcr	r2,ESR(1)
    8994:	04 00 41 20 	ld32	r2,[r1,16]
    8998:	88 00 21 00 	addi	r1,r1,136
    899c:	00 04 00 64 	rte	
    89a0:	00 04 00 08 	and	r0,r0,r0

000089a4 <__umodsi3>:
    89a4:	11 18 03 18 	beq	r3,r0,89ec <__umodsi3+0x48>
    89a8:	10 30 62 18 	bltu	r2,r3,89ec <__umodsi3+0x48>
    89ac:	1f 30 c2 03 	sari	r30,r2,31
    89b0:	1f 00 a0 02 	addi	r21,r0,31
    89b4:	0e 08 1e 18 	bne	r30,r0,89f0 <__umodsi3+0x4c>
    89b8:	00 50 c3 00 	csb	r6,r3
    89bc:	06 80 d5 08 	sub	r6,r21,r6
    89c0:	00 50 e2 00 	csb	r7,r2
    89c4:	07 80 f5 08 	sub	r7,r21,r7
    89c8:	07 80 c7 08 	sub	r7,r7,r6
    89cc:	14 10 e3 08 	sll	r20,r3,r7
    89d0:	1c 70 82 0a 	sltu	r28,r2,r20
    89d4:	07 80 87 0b 	sub	r7,r7,r28
    89d8:	14 10 e3 08 	sll	r20,r3,r7
    89dc:	02 80 82 0a 	sub	r2,r2,r20
    89e0:	1f 30 c2 03 	sari	r30,r2,31
    89e4:	08 08 1e 18 	bne	r30,r0,8a08 <__umodsi3+0x64>
    89e8:	f5 23 62 18 	bgeu	r2,r3,89c0 <__umodsi3+0x1c>
    89ec:	00 08 12 00 	ja	r0,r18,0;	[0x0]
    89f0:	1f 30 c3 03 	sari	r30,r3,31
    89f4:	1f 80 62 08 	sub	r31,r2,r3
    89f8:	02 34 fe 0b 	mvnz	r2,r30,r31
    89fc:	fb 0b 1e 18 	bne	r30,r0,89ec <__umodsi3+0x48>
    8a00:	00 50 c3 00 	csb	r6,r3
    8a04:	06 80 d5 08 	sub	r6,r21,r6
    8a08:	00 00 e0 00 	addi	r7,r0,0
    8a0c:	ed 1b 07 18 	beq	r7,r0,89c4 <__umodsi3+0x20>

00008a10 <__udivsi3>:
    8a10:	05 00 02 08 	add	r5,r2,r0
    8a14:	02 00 00 08 	add	r2,r0,r0
    8a18:	14 18 03 18 	beq	r3,r0,8a6c <__udivsi3+0x5c>
    8a1c:	01 00 80 00 	addi	r4,r0,1
    8a20:	12 30 65 18 	bltu	r5,r3,8a6c <__udivsi3+0x5c>
    8a24:	1f 00 a0 02 	addi	r21,r0,31
    8a28:	1f 30 c5 03 	sari	r30,r5,31
    8a2c:	10 08 1e 18 	bne	r30,r0,8a70 <__udivsi3+0x60>
    8a30:	00 50 c3 00 	csb	r6,r3
    8a34:	06 80 d5 08 	sub	r6,r21,r6
    8a38:	00 50 e5 00 	csb	r7,r5
    8a3c:	07 80 f5 08 	sub	r7,r21,r7
    8a40:	07 80 c7 08 	sub	r7,r7,r6
    8a44:	1c 10 e3 08 	sll	r28,r3,r7
    8a48:	1d 70 85 0b 	sltu	r29,r5,r28
    8a4c:	07 80 a7 0b 	sub	r7,r7,r29
    8a50:	1c 10 e3 08 	sll	r28,r3,r7
    8a54:	05 80 85 0b 	sub	r5,r5,r28
    8a58:	1d 10 e4 08 	sll	r29,r4,r7
    8a5c:	02 00 a2 0b 	add	r2,r2,r29
    8a60:	1f 30 c5 03 	sari	r30,r5,31
    8a64:	08 08 1e 18 	bne	r30,r0,8a88 <__udivsi3+0x78>
    8a68:	f3 23 65 18 	bgeu	r5,r3,8a38 <__udivsi3+0x28>
    8a6c:	00 08 12 00 	ja	r0,r18,0;	[0x0]
    8a70:	1f 30 c3 03 	sari	r30,r3,31
    8a74:	01 00 e0 03 	addi	r31,r0,1
    8a78:	02 34 fe 0b 	mvnz	r2,r30,r31
    8a7c:	fb 0b 1e 18 	bne	r30,r0,8a6c <__udivsi3+0x5c>
    8a80:	00 50 c3 00 	csb	r6,r3
    8a84:	06 80 d5 08 	sub	r6,r21,r6
    8a88:	00 00 e0 00 	addi	r7,r0,0
    8a8c:	eb 1b 07 18 	beq	r7,r0,8a3c <__udivsi3+0x2c>

00008a90 <__sdivsi3>:
    8a90:	14 40 02 08 	sge	r20,r2,r0
    8a94:	05 80 40 08 	sub	r5,r0,r2
    8a98:	05 34 54 08 	mvnz	r5,r20,r2
    8a9c:	04 40 03 08 	sge	r4,r3,r0
    8aa0:	06 80 60 08 	sub	r6,r0,r3
    8aa4:	03 24 c4 08 	mvz	r3,r4,r6
    8aa8:	15 0c 94 08 	xor	r21,r20,r4
    8aac:	17 30 65 18 	bltu	r5,r3,8b0c <__sdivsi3+0x7c>
    8ab0:	01 10 83 03 	slli	r28,r3,1
    8ab4:	01 10 d5 00 	slli	r6,r21,1
    8ab8:	16 30 85 1b 	bltu	r5,r28,8b14 <__sdivsi3+0x84>
    8abc:	02 00 00 08 	add	r2,r0,r0
    8ac0:	0f 18 03 18 	beq	r3,r0,8b00 <__sdivsi3+0x70>
    8ac4:	01 00 80 00 	addi	r4,r0,1
    8ac8:	1f 00 a0 03 	addi	r29,r0,31
    8acc:	00 50 c3 00 	csb	r6,r3
    8ad0:	06 80 dd 08 	sub	r6,r29,r6
    8ad4:	00 50 e5 00 	csb	r7,r5
    8ad8:	07 80 fd 08 	sub	r7,r29,r7
    8adc:	07 80 c7 08 	sub	r7,r7,r6
    8ae0:	14 10 e3 08 	sll	r20,r3,r7
    8ae4:	1c 70 85 0a 	sltu	r28,r5,r20
    8ae8:	07 80 87 0b 	sub	r7,r7,r28
    8aec:	14 10 e3 08 	sll	r20,r3,r7
    8af0:	05 80 85 0a 	sub	r5,r5,r20
    8af4:	1c 10 e4 08 	sll	r28,r4,r7
    8af8:	02 00 82 0b 	add	r2,r2,r28
    8afc:	f5 23 65 18 	bgeu	r5,r3,8ad4 <__sdivsi3+0x44>
    8b00:	03 80 40 08 	sub	r3,r0,r2
    8b04:	02 34 75 08 	mvnz	r2,r21,r3
    8b08:	00 08 12 00 	ja	r0,r18,0;	[0x0]
    8b0c:	00 00 40 00 	addi	r2,r0,0
    8b10:	00 08 12 00 	ja	r0,r18,0;	[0x0]
    8b14:	01 00 40 00 	addi	r2,r0,1
    8b18:	02 80 c2 08 	sub	r2,r2,r6
    8b1c:	00 08 12 00 	ja	r0,r18,0;	[0x0]

00008b20 <__smodsi3>:
    8b20:	04 40 03 08 	sge	r4,r3,r0
    8b24:	05 80 60 08 	sub	r5,r0,r3
    8b28:	03 24 a4 08 	mvz	r3,r4,r5
    8b2c:	06 40 02 08 	sge	r6,r2,r0
    8b30:	07 80 40 08 	sub	r7,r0,r2
    8b34:	02 24 e6 08 	mvz	r2,r6,r7
    8b38:	1f 00 a0 02 	addi	r21,r0,31
    8b3c:	0c 18 03 18 	beq	r3,r0,8b70 <__smodsi3+0x50>
    8b40:	0b 30 62 18 	bltu	r2,r3,8b70 <__smodsi3+0x50>
    8b44:	00 50 a3 00 	csb	r5,r3
    8b48:	05 80 b5 08 	sub	r5,r21,r5
    8b4c:	00 50 e2 00 	csb	r7,r2
    8b50:	07 80 f5 08 	sub	r7,r21,r7
    8b54:	07 80 a7 08 	sub	r7,r7,r5
    8b58:	14 10 e3 08 	sll	r20,r3,r7
    8b5c:	1c 70 82 0a 	sltu	r28,r2,r20
    8b60:	07 80 87 0b 	sub	r7,r7,r28
    8b64:	14 10 e3 08 	sll	r20,r3,r7
    8b68:	02 80 82 0a 	sub	r2,r2,r20
    8b6c:	f7 23 62 18 	bgeu	r2,r3,8b4c <__smodsi3+0x2c>
    8b70:	03 80 40 08 	sub	r3,r0,r2
    8b74:	02 24 66 08 	mvz	r2,r6,r3
    8b78:	00 08 12 00 	ja	r0,r18,0;	[0x0]

00008b7c <_getstack>:
    8b7c:	00 00 40 24 	lhi	r2,0;	[0x0]
    8b80:	00 00 42 50 	ori	r2,r2,0;	[0x0] 0x0 <*ABS*>
    8b84:	00 00 41 00 	addi	r2,r1,0
    8b88:	00 08 12 00 	ja	r0,r18,0;	[0x0]

00008b8c <_jumptoentry>:
    8b8c:	10 00 40 24 	lhi	r2,16;	[0x8000]
    8b90:	00 00 42 50 	ori	r2,r2,0;	[0x0] 0x8000 <_text>
    8b94:	00 08 02 00 	ja	r0,r2,0;	[0x0]

00008b98 <RNG_Init>:
    8b98:	00 80 a1 26 	lhi	r21,98304;	[0xc000000]
    8b9c:	56 00 b5 22 	ld32	r21,[r21,344]
    8ba0:	5e 00 83 26 	lhi	r20,196702;	[0x1802f000]
    8ba4:	15 04 14 28 	sr32	r21,[r20,r0]
    8ba8:	00 08 12 00 	ja	r0,r18,0;	[0x0]

00008bac <Get_Rand>:
    8bac:	5e 00 a3 26 	lhi	r21,196702;	[0x1802f000]
    8bb0:	14 00 15 28 	lr32	r20,[r21,r0]
    8bb4:	02 00 94 32 	andi	r20,r20,2
    8bb8:	fd 1b 14 10 	beqi	r20,0,8bb0 <Get_Rand+0x4>
    8bbc:	5e 00 83 26 	lhi	r20,196702;	[0x1802f000]
    8bc0:	04 00 94 52 	ori	r20,r20,4;	[0x4] 0x1802f004 <_stack+0xc02d008>
    8bc4:	02 00 14 28 	lr32	r2,[r20,r0]
    8bc8:	5e 00 a3 26 	lhi	r21,196702;	[0x1802f000]
    8bcc:	14 00 15 28 	lr32	r20,[r21,r0]
    8bd0:	fd ff 94 32 	andi	r20,r20,-3
    8bd4:	14 04 15 28 	sr32	r20,[r21,r0]
    8bd8:	00 08 12 00 	ja	r0,r18,0;	[0x0]

00008bdc <set_sysclk>:
    8bdc:	fc 03 21 00 	addi	r1,r1,-4
    8be0:	12 04 01 28 	sr32	r18,[r1,r0]
    8be4:	7e 00 83 26 	lhi	r20,196734;	[0x1803f000]
    8be8:	00 01 94 52 	ori	r20,r20,256;	[0x100] 0x1803f100 <IPR+0xf0>
    8bec:	14 00 14 28 	lr32	r20,[r20,r0]
    8bf0:	ff 0f 94 32 	andi	r20,r20,4095
    8bf4:	10 18 14 10 	beqi	r20,0,8c38 <set_sysclk+0x5c>
    8bf8:	b5 04 80 52 	ori	r20,r0,1205;	[0x4b5]
    8bfc:	00 80 61 26 	lhi	r19,98304;	[0xc000000]
    8c00:	56 04 93 22 	sd32	r20,[r19,344]
    8c04:	55 00 a0 52 	ori	r21,r0,85;	[0x55]
    8c08:	21 00 83 26 	lhi	r20,196641;	[0x18010800]
    8c0c:	15 04 14 28 	sr32	r21,[r20,r0]
    8c10:	c6 2d 80 26 	lhi	r20,11718;	[0x16e3000]
    8c14:	00 06 94 52 	ori	r20,r20,1536;	[0x600] 0x16e3600 <_erodata+0x16bc244>
    8c18:	00 80 61 26 	lhi	r19,98304;	[0xc000000]
    8c1c:	55 04 93 22 	sd32	r20,[r19,340]
    8c20:	00 80 81 26 	lhi	r20,98304;	[0xc000000]
    8c24:	f0 00 94 52 	ori	r20,r20,240;	[0xf0] 0xc0000f0 <chip96mode>
    8c28:	00 1c 14 28 	sr8	r0,[r20,r0]
    8c2c:	11 00 80 26 	lhi	r20,17;	[0x8800]
    8c30:	e6 08 54 02 	ja	r18,r20,920;	[0x398] 0x8b98 <RNG_Init>
    8c34:	53 00 00 14 	j	r0,8d84 <set_sysclk+0x1a8>
    8c38:	1b b7 80 26 	lhi	r20,46875;	[0x5b8d800]
    8c3c:	17 18 82 1a 	beq	r2,r20,8c9c <set_sysclk+0xc0>
    8c40:	04 30 54 18 	bltu	r20,r2,8c54 <set_sysclk+0x78>
    8c44:	c6 2d 80 26 	lhi	r20,11718;	[0x16e3000]
    8c48:	00 06 94 52 	ori	r20,r20,1536;	[0x600] 0x16e3600 <_erodata+0x16bc244>
    8c4c:	05 18 82 1a 	beq	r2,r20,8c64 <set_sysclk+0x88>
    8c50:	31 00 00 14 	j	r0,8d18 <set_sysclk+0x13c>
    8c54:	a8 12 81 26 	lhi	r20,70312;	[0x8954000]
    8c58:	00 04 94 52 	ori	r20,r20,1024;	[0x400] 0x8954400 <_erodata+0x892d044>
    8c5c:	1d 18 82 1a 	beq	r2,r20,8cd4 <set_sysclk+0xf8>
    8c60:	2d 00 00 14 	j	r0,8d18 <set_sysclk+0x13c>
    8c64:	d7 08 a0 26 	lhi	r21,2263;	[0x46b800]
    8c68:	66 03 b5 52 	ori	r21,r21,870;	[0x366] 0x46bb66 <_erodata+0x4447aa>
    8c6c:	7e 00 83 26 	lhi	r20,196734;	[0x1803f000]
    8c70:	00 01 94 52 	ori	r20,r20,256;	[0x100] 0x1803f100 <IPR+0xf0>
    8c74:	15 04 14 28 	sr32	r21,[r20,r0]
    8c78:	b5 04 80 52 	ori	r20,r0,1205;	[0x4b5]
    8c7c:	00 80 61 26 	lhi	r19,98304;	[0xc000000]
    8c80:	56 04 93 22 	sd32	r20,[r19,344]
    8c84:	55 00 a0 52 	ori	r21,r0,85;	[0x55]
    8c88:	21 00 83 26 	lhi	r20,196641;	[0x18010800]
    8c8c:	15 04 14 28 	sr32	r21,[r20,r0]
    8c90:	c6 2d 80 26 	lhi	r20,11718;	[0x16e3000]
    8c94:	00 06 94 52 	ori	r20,r20,1536;	[0x600] 0x16e3600 <_erodata+0x16bc244>
    8c98:	1c 00 00 14 	j	r0,8d0c <set_sysclk+0x130>
    8c9c:	57 08 a0 26 	lhi	r21,2135;	[0x42b800]
    8ca0:	22 03 b5 52 	ori	r21,r21,802;	[0x322] 0x42bb22 <_erodata+0x404766>
    8ca4:	7e 00 83 26 	lhi	r20,196734;	[0x1803f000]
    8ca8:	00 01 94 52 	ori	r20,r20,256;	[0x100] 0x1803f100 <IPR+0xf0>
    8cac:	15 04 14 28 	sr32	r21,[r20,r0]
    8cb0:	f5 0f 80 52 	ori	r20,r0,4085;	[0xff5]
    8cb4:	00 80 61 26 	lhi	r19,98304;	[0xc000000]
    8cb8:	56 04 93 22 	sd32	r20,[r19,344]
    8cbc:	60 00 a0 26 	lhi	r21,96;	[0x30000]
    8cc0:	64 00 b5 52 	ori	r21,r21,100;	[0x64] 0x30064 <_erodata+0x8ca8>
    8cc4:	21 00 83 26 	lhi	r20,196641;	[0x18010800]
    8cc8:	15 04 14 28 	sr32	r21,[r20,r0]
    8ccc:	1b b7 80 26 	lhi	r20,46875;	[0x5b8d800]
    8cd0:	0e 00 00 14 	j	r0,8d0c <set_sysclk+0x130>
    8cd4:	37 08 a0 26 	lhi	r21,2103;	[0x41b800]
    8cd8:	11 03 b5 52 	ori	r21,r21,785;	[0x311] 0x41bb11 <_erodata+0x3f4755>
    8cdc:	7e 00 83 26 	lhi	r20,196734;	[0x1803f000]
    8ce0:	00 01 94 52 	ori	r20,r20,256;	[0x100] 0x1803f100 <IPR+0xf0>
    8ce4:	15 04 14 28 	sr32	r21,[r20,r0]
    8ce8:	85 16 80 52 	ori	r20,r0,5765;	[0x1685]
    8cec:	00 80 61 26 	lhi	r19,98304;	[0xc000000]
    8cf0:	56 04 93 22 	sd32	r20,[r19,344]
    8cf4:	80 00 a0 26 	lhi	r21,128;	[0x40000]
    8cf8:	64 00 b5 52 	ori	r21,r21,100;	[0x64] 0x40064 <_erodata+0x18ca8>
    8cfc:	21 00 83 26 	lhi	r20,196641;	[0x18010800]
    8d00:	15 04 14 28 	sr32	r21,[r20,r0]
    8d04:	a8 12 81 26 	lhi	r20,70312;	[0x8954000]
    8d08:	00 04 94 52 	ori	r20,r20,1024;	[0x400] 0x8954400 <_erodata+0x892d044>
    8d0c:	00 80 61 26 	lhi	r19,98304;	[0xc000000]
    8d10:	55 04 93 22 	sd32	r20,[r19,340]
    8d14:	10 00 00 14 	j	r0,8d58 <set_sysclk+0x17c>
    8d18:	b7 08 a0 26 	lhi	r21,2231;	[0x45b800]
    8d1c:	55 03 b5 52 	ori	r21,r21,853;	[0x355] 0x45bb55 <_erodata+0x434799>
    8d20:	7e 00 83 26 	lhi	r20,196734;	[0x1803f000]
    8d24:	00 01 94 52 	ori	r20,r20,256;	[0x100] 0x1803f100 <IPR+0xf0>
    8d28:	15 04 14 28 	sr32	r21,[r20,r0]
    8d2c:	65 09 80 52 	ori	r20,r0,2405;	[0x965]
    8d30:	00 80 61 26 	lhi	r19,98304;	[0xc000000]
    8d34:	56 04 93 22 	sd32	r20,[r19,344]
    8d38:	aa 44 80 26 	lhi	r20,17578;	[0x2255000]
    8d3c:	00 01 94 52 	ori	r20,r20,256;	[0x100] 0x2255100 <_erodata+0x222dd44>
    8d40:	00 80 61 26 	lhi	r19,98304;	[0xc000000]
    8d44:	55 04 93 22 	sd32	r20,[r19,340]
    8d48:	20 00 a0 26 	lhi	r21,32;	[0x10000]
    8d4c:	55 00 b5 52 	ori	r21,r21,85;	[0x55] 0x10055 <ECCGF2m_point_add+0x32d>
    8d50:	21 00 83 26 	lhi	r20,196641;	[0x18010800]
    8d54:	15 04 14 28 	sr32	r21,[r20,r0]
    8d58:	00 e0 a5 26 	lhi	r21,385024;	[0x2f000000]
    8d5c:	32 01 b5 52 	ori	r21,r21,306;	[0x132] 0x2f000132 <IPR+0x16fc1122>
    8d60:	7e 00 83 26 	lhi	r20,196734;	[0x1803f000]
    8d64:	10 01 94 52 	ori	r20,r20,272;	[0x110] 0x1803f110 <IPR+0x100>
    8d68:	15 04 14 28 	sr32	r21,[r20,r0]
    8d6c:	01 00 a0 52 	ori	r21,r0,1;	[0x1]
    8d70:	00 80 81 26 	lhi	r20,98304;	[0xc000000]
    8d74:	f0 00 94 52 	ori	r20,r20,240;	[0xf0] 0xc0000f0 <chip96mode>
    8d78:	15 1c 14 28 	sr8	r21,[r20,r0]
    8d7c:	11 00 80 26 	lhi	r20,17;	[0x8800]
    8d80:	e6 08 54 02 	ja	r18,r20,920;	[0x398] 0x8b98 <RNG_Init>
    8d84:	12 00 01 28 	lr32	r18,[r1,r0]
    8d88:	04 00 21 00 	addi	r1,r1,4
    8d8c:	00 08 12 00 	ja	r0,r18,0;	[0x0]

00008d90 <set_clk>:
    8d90:	fc 03 21 00 	addi	r1,r1,-4
    8d94:	12 04 01 28 	sr32	r18,[r1,r0]
    8d98:	00 10 80 66 	rcr	r20,SR(0)
    8d9c:	fe ff 94 32 	andi	r20,r20,-2
    8da0:	00 14 80 66 	wcr	r20,SR(0)
    8da4:	00 80 81 26 	lhi	r20,98304;	[0xc000000]
    8da8:	f0 00 94 52 	ori	r20,r20,240;	[0xf0] 0xc0000f0 <chip96mode>
    8dac:	14 38 14 28 	lr8u	r20,[r20,r0]
    8db0:	4e 18 14 10 	beqi	r20,0,8eec <set_clk+0x15c>
    8db4:	1b b7 80 26 	lhi	r20,46875;	[0x5b8d800]
    8db8:	17 18 82 1a 	beq	r2,r20,8e18 <set_clk+0x88>
    8dbc:	04 30 54 18 	bltu	r20,r2,8dd0 <set_clk+0x40>
    8dc0:	c6 2d 80 26 	lhi	r20,11718;	[0x16e3000]
    8dc4:	00 06 94 52 	ori	r20,r20,1536;	[0x600] 0x16e3600 <_erodata+0x16bc244>
    8dc8:	05 18 82 1a 	beq	r2,r20,8de0 <set_clk+0x50>
    8dcc:	2f 00 00 14 	j	r0,8e8c <set_clk+0xfc>
    8dd0:	a8 12 81 26 	lhi	r20,70312;	[0x8954000]
    8dd4:	00 04 94 52 	ori	r20,r20,1024;	[0x400] 0x8954400 <_erodata+0x892d044>
    8dd8:	1d 18 82 1a 	beq	r2,r20,8e50 <set_clk+0xc0>
    8ddc:	2b 00 00 14 	j	r0,8e8c <set_clk+0xfc>
    8de0:	df 08 a0 26 	lhi	r21,2271;	[0x46f800]
    8de4:	66 03 b5 52 	ori	r21,r21,870;	[0x366] 0x46fb66 <_erodata+0x4487aa>
    8de8:	7e 00 83 26 	lhi	r20,196734;	[0x1803f000]
    8dec:	00 01 94 52 	ori	r20,r20,256;	[0x100] 0x1803f100 <IPR+0xf0>
    8df0:	15 04 14 28 	sr32	r21,[r20,r0]
    8df4:	55 00 a0 52 	ori	r21,r0,85;	[0x55]
    8df8:	21 00 83 26 	lhi	r20,196641;	[0x18010800]
    8dfc:	15 04 14 28 	sr32	r21,[r20,r0]
    8e00:	b5 04 80 52 	ori	r20,r0,1205;	[0x4b5]
    8e04:	00 80 61 26 	lhi	r19,98304;	[0xc000000]
    8e08:	56 04 93 22 	sd32	r20,[r19,344]
    8e0c:	c6 2d 80 26 	lhi	r20,11718;	[0x16e3000]
    8e10:	00 06 94 52 	ori	r20,r20,1536;	[0x600] 0x16e3600 <_erodata+0x16bc244>
    8e14:	2b 00 00 14 	j	r0,8ec4 <set_clk+0x134>
    8e18:	60 00 a0 26 	lhi	r21,96;	[0x30000]
    8e1c:	64 00 b5 52 	ori	r21,r21,100;	[0x64] 0x30064 <_erodata+0x8ca8>
    8e20:	21 00 83 26 	lhi	r20,196641;	[0x18010800]
    8e24:	15 04 14 28 	sr32	r21,[r20,r0]
    8e28:	5f 08 a0 26 	lhi	r21,2143;	[0x42f800]
    8e2c:	22 03 b5 52 	ori	r21,r21,802;	[0x322] 0x42fb22 <_erodata+0x408766>
    8e30:	7e 00 83 26 	lhi	r20,196734;	[0x1803f000]
    8e34:	00 01 94 52 	ori	r20,r20,256;	[0x100] 0x1803f100 <IPR+0xf0>
    8e38:	15 04 14 28 	sr32	r21,[r20,r0]
    8e3c:	f5 0f 80 52 	ori	r20,r0,4085;	[0xff5]
    8e40:	00 80 61 26 	lhi	r19,98304;	[0xc000000]
    8e44:	56 04 93 22 	sd32	r20,[r19,344]
    8e48:	1b b7 80 26 	lhi	r20,46875;	[0x5b8d800]
    8e4c:	1d 00 00 14 	j	r0,8ec4 <set_clk+0x134>
    8e50:	80 00 a0 26 	lhi	r21,128;	[0x40000]
    8e54:	64 00 b5 52 	ori	r21,r21,100;	[0x64] 0x40064 <_erodata+0x18ca8>
    8e58:	21 00 83 26 	lhi	r20,196641;	[0x18010800]
    8e5c:	15 04 14 28 	sr32	r21,[r20,r0]
    8e60:	7f 08 a0 26 	lhi	r21,2175;	[0x43f800]
    8e64:	31 03 b5 52 	ori	r21,r21,817;	[0x331] 0x43fb31 <_erodata+0x418775>
    8e68:	7e 00 83 26 	lhi	r20,196734;	[0x1803f000]
    8e6c:	00 01 94 52 	ori	r20,r20,256;	[0x100] 0x1803f100 <IPR+0xf0>
    8e70:	15 04 14 28 	sr32	r21,[r20,r0]
    8e74:	85 16 80 52 	ori	r20,r0,5765;	[0x1685]
    8e78:	00 80 61 26 	lhi	r19,98304;	[0xc000000]
    8e7c:	56 04 93 22 	sd32	r20,[r19,344]
    8e80:	a8 12 81 26 	lhi	r20,70312;	[0x8954000]
    8e84:	00 04 94 52 	ori	r20,r20,1024;	[0x400] 0x8954400 <_erodata+0x892d044>
    8e88:	0e 00 00 14 	j	r0,8ec4 <set_clk+0x134>
    8e8c:	bf 08 a0 26 	lhi	r21,2239;	[0x45f800]
    8e90:	55 03 b5 52 	ori	r21,r21,853;	[0x355] 0x45fb55 <_erodata+0x438799>
    8e94:	7e 00 83 26 	lhi	r20,196734;	[0x1803f000]
    8e98:	00 01 94 52 	ori	r20,r20,256;	[0x100] 0x1803f100 <IPR+0xf0>
    8e9c:	15 04 14 28 	sr32	r21,[r20,r0]
    8ea0:	20 00 a0 26 	lhi	r21,32;	[0x10000]
    8ea4:	55 00 b5 52 	ori	r21,r21,85;	[0x55] 0x10055 <ECCGF2m_point_add+0x32d>
    8ea8:	21 00 83 26 	lhi	r20,196641;	[0x18010800]
    8eac:	15 04 14 28 	sr32	r21,[r20,r0]
    8eb0:	65 09 80 52 	ori	r20,r0,2405;	[0x965]
    8eb4:	00 80 61 26 	lhi	r19,98304;	[0xc000000]
    8eb8:	56 04 93 22 	sd32	r20,[r19,344]
    8ebc:	aa 44 80 26 	lhi	r20,17578;	[0x2255000]
    8ec0:	00 01 94 52 	ori	r20,r20,256;	[0x100] 0x2255100 <_erodata+0x222dd44>
    8ec4:	00 80 61 26 	lhi	r19,98304;	[0xc000000]
    8ec8:	55 04 93 22 	sd32	r20,[r19,340]
    8ecc:	11 00 80 26 	lhi	r20,17;	[0x8800]
    8ed0:	e6 08 54 02 	ja	r18,r20,920;	[0x398] 0x8b98 <RNG_Init>
    8ed4:	02 08 00 08 	or	r2,r0,r0
    8ed8:	11 00 80 26 	lhi	r20,17;	[0x8800]
    8edc:	f5 09 54 02 	ja	r18,r20,2004;	[0x7d4] 0x8fd4 <uart_init_dynamic>
    8ee0:	00 10 80 66 	rcr	r20,SR(0)
    8ee4:	01 00 94 52 	ori	r20,r20,1;	[0x1]
    8ee8:	00 14 80 66 	wcr	r20,SR(0)
    8eec:	12 00 01 28 	lr32	r18,[r1,r0]
    8ef0:	04 00 21 00 	addi	r1,r1,4
    8ef4:	00 08 12 00 	ja	r0,r18,0;	[0x0]

00008ef8 <copy_rom_to_ram>:
    8ef8:	4e 00 c0 24 	lhi	r6,78;	[0x27000]
    8efc:	bc 03 c6 50 	ori	r6,r6,956;	[0x3bc] 0x273bc <_erodata>
    8f00:	00 80 a1 26 	lhi	r21,98304;	[0xc000000]
    8f04:	20 00 b5 52 	ori	r21,r21,32;	[0x20] 0xc000020 <interrupt_type>
    8f08:	00 80 e1 24 	lhi	r7,98304;	[0xc000000]
    8f0c:	ec 00 e7 50 	ori	r7,r7,236;	[0xec] 0xc0000ec <_end_sys_data>
    8f10:	05 20 f5 18 	bgeu	r21,r7,8f28 <copy_rom_to_ram+0x30>
    8f14:	14 18 06 28 	lr8	r20,[r6,r0]
    8f18:	14 1c 15 28 	sr8	r20,[r21,r0]
    8f1c:	01 00 c6 00 	addi	r6,r6,1
    8f20:	01 00 b5 02 	addi	r21,r21,1
    8f24:	fb 33 f5 18 	bltu	r21,r7,8f14 <copy_rom_to_ram+0x1c>
    8f28:	00 80 a1 26 	lhi	r21,98304;	[0xc000000]
    8f2c:	ec 00 b5 52 	ori	r21,r21,236;	[0xec] 0xc0000ec <_end_sys_data>
    8f30:	00 80 e1 24 	lhi	r7,98304;	[0xc000000]
    8f34:	50 01 e7 50 	ori	r7,r7,336;	[0x150] 0xc000150 <_edata>
    8f38:	05 20 f5 18 	bgeu	r21,r7,8f50 <copy_rom_to_ram+0x58>
    8f3c:	14 18 06 28 	lr8	r20,[r6,r0]
    8f40:	14 1c 15 28 	sr8	r20,[r21,r0]
    8f44:	01 00 c6 00 	addi	r6,r6,1
    8f48:	01 00 b5 02 	addi	r21,r21,1
    8f4c:	fb 33 f5 18 	bltu	r21,r7,8f3c <copy_rom_to_ram+0x44>
    8f50:	00 08 12 00 	ja	r0,r18,0;	[0x0]

00008f54 <uart_init>:
    8f54:	00 80 c1 24 	lhi	r6,98304;	[0xc000000]
    8f58:	55 00 c6 20 	ld32	r6,[r6,340]
    8f5c:	56 34 92 26 	lhi	r20,1193046;	[0x91a2b000]
    8f60:	c5 03 94 52 	ori	r20,r20,965;	[0x3c5] 0x91a2b3c5 <IPR+0x799ec3b5>
    8f64:	c0 44 86 0a 	mulu	r6,r0,r6,r20
    8f68:	14 20 c6 00 	slri	r6,r6,20
    8f6c:	ff 03 c6 00 	addi	r6,r6,-1
    8f70:	7e 00 e3 24 	lhi	r7,196734;	[0x1803f000]
    8f74:	10 05 e7 50 	ori	r7,r7,1296;	[0x510] 0x1803f510 <IPR+0x500>
    8f78:	14 00 07 28 	lr32	r20,[r7,r0]
    8f7c:	7f fd bf 26 	lhi	r21,2096511;	[0xffebf800]
    8f80:	ff 07 b5 52 	ori	r21,r21,2047;	[0x7ff] 0xffebffff <IPR+0xe7e80fef>
    8f84:	14 04 b4 0a 	and	r20,r20,r21
    8f88:	14 04 07 28 	sr32	r20,[r7,r0]
    8f8c:	14 00 07 28 	lr32	r20,[r7,r0]
    8f90:	80 02 a0 26 	lhi	r21,640;	[0x140000]
    8f94:	14 08 b4 0a 	or	r20,r20,r21
    8f98:	14 04 07 28 	sr32	r20,[r7,r0]
    8f9c:	5c 00 e3 24 	lhi	r7,196700;	[0x1802e000]
    8fa0:	14 04 e7 50 	ori	r7,r7,1044;	[0x414] 0x1802e414 <_stack+0xc02c418>
    8fa4:	00 1c 07 28 	sr8	r0,[r7,r0]
    8fa8:	5c 00 83 26 	lhi	r20,196700;	[0x1802e000]
    8fac:	0c 04 94 52 	ori	r20,r20,1036;	[0x40c] 0x1802e40c <_stack+0xc02c410>
    8fb0:	00 1c 14 28 	sr8	r0,[r20,r0]
    8fb4:	04 00 94 02 	addi	r20,r20,4
    8fb8:	06 1c 14 28 	sr8	r6,[r20,r0]
    8fbc:	70 00 a0 52 	ori	r21,r0,112;	[0x70]
    8fc0:	f8 03 94 02 	addi	r20,r20,-8
    8fc4:	15 1c 14 28 	sr8	r21,[r20,r0]
    8fc8:	11 00 80 52 	ori	r20,r0,17;	[0x11]
    8fcc:	14 1c 07 28 	sr8	r20,[r7,r0]
    8fd0:	00 08 12 00 	ja	r0,r18,0;	[0x0]

00008fd4 <uart_init_dynamic>:
    8fd4:	00 80 81 26 	lhi	r20,98304;	[0xc000000]
    8fd8:	55 00 94 22 	ld32	r20,[r20,340]
    8fdc:	56 34 b2 26 	lhi	r21,1193046;	[0x91a2b000]
    8fe0:	c5 03 b5 52 	ori	r21,r21,965;	[0x3c5] 0x91a2b3c5 <IPR+0x799ec3b5>
    8fe4:	80 46 b4 0a 	mulu	r20,r0,r20,r21
    8fe8:	14 20 b4 02 	slri	r21,r20,20
    8fec:	ff 03 b5 02 	addi	r21,r21,-1
    8ff0:	5c 00 c3 24 	lhi	r6,196700;	[0x1802e000]
    8ff4:	18 04 c6 50 	ori	r6,r6,1048;	[0x418] 0x1802e418 <_stack+0xc02c41c>
    8ff8:	14 18 06 28 	lr8	r20,[r6,r0]
    8ffc:	08 00 94 32 	andi	r20,r20,8
    9000:	fd 0b 14 10 	bnei	r20,0,8ff8 <uart_init_dynamic+0x24>
    9004:	5c 00 c3 24 	lhi	r6,196700;	[0x1802e000]
    9008:	14 04 c6 50 	ori	r6,r6,1044;	[0x414] 0x1802e414 <_stack+0xc02c418>
    900c:	00 1c 06 28 	sr8	r0,[r6,r0]
    9010:	5c 00 83 26 	lhi	r20,196700;	[0x1802e000]
    9014:	0c 04 94 52 	ori	r20,r20,1036;	[0x40c] 0x1802e40c <_stack+0xc02c410>
    9018:	00 1c 14 28 	sr8	r0,[r20,r0]
    901c:	04 00 94 02 	addi	r20,r20,4
    9020:	15 1c 14 28 	sr8	r21,[r20,r0]
    9024:	70 00 a0 52 	ori	r21,r0,112;	[0x70]
    9028:	f8 03 94 02 	addi	r20,r20,-8
    902c:	15 1c 14 28 	sr8	r21,[r20,r0]
    9030:	11 00 80 52 	ori	r20,r0,17;	[0x11]
    9034:	14 1c 06 28 	sr8	r20,[r6,r0]
    9038:	00 08 12 00 	ja	r0,r18,0;	[0x0]

0000903c <pp_sram_init>:
    903c:	7e 00 e3 24 	lhi	r7,196734;	[0x1803f000]
    9040:	0c 05 e7 50 	ori	r7,r7,1292;	[0x50c] 0x1803f50c <IPR+0x4fc>
    9044:	14 00 07 28 	lr32	r20,[r7,r0]
    9048:	00 80 b9 26 	lhi	r21,1671168;	[0xcc000000]
    904c:	14 04 b4 0a 	and	r20,r20,r21
    9050:	14 04 07 28 	sr32	r20,[r7,r0]
    9054:	7e 00 c3 24 	lhi	r6,196734;	[0x1803f000]
    9058:	10 05 c6 50 	ori	r6,r6,1296;	[0x510] 0x1803f510 <IPR+0x500>
    905c:	14 00 06 28 	lr32	r20,[r6,r0]
    9060:	98 ff bf 26 	lhi	r21,2097048;	[0xfffcc000]
    9064:	ff 00 b5 52 	ori	r21,r21,255;	[0xff] 0xfffcc0ff <IPR+0xe7f8d0ef>
    9068:	14 04 b4 0a 	and	r20,r20,r21
    906c:	14 04 06 28 	sr32	r20,[r6,r0]
    9070:	14 00 06 28 	lr32	r20,[r6,r0]
    9074:	24 00 a0 26 	lhi	r21,36;	[0x12000]
    9078:	00 04 b5 52 	ori	r21,r21,1024;	[0x400] 0x12400 <nand_read_begin_split+0x594>
    907c:	14 08 b4 0a 	or	r20,r20,r21
    9080:	14 04 06 28 	sr32	r20,[r6,r0]
    9084:	14 00 07 28 	lr32	r20,[r7,r0]
    9088:	55 51 a2 26 	lhi	r21,151893;	[0x128aa800]
    908c:	aa 02 b5 52 	ori	r21,r21,682;	[0x2aa] 0x128aaaaa <_stack+0x68a8aae>
    9090:	14 08 b4 0a 	or	r20,r20,r21
    9094:	14 04 07 28 	sr32	r20,[r7,r0]
    9098:	00 1d a0 52 	ori	r21,r0,7424;	[0x1d00]
    909c:	5d 00 83 26 	lhi	r20,196701;	[0x1802e800]
    90a0:	fc 00 94 52 	ori	r20,r20,252;	[0xfc] 0x1802e8fc <_stack+0xc02c900>
    90a4:	15 04 14 28 	sr32	r21,[r20,r0]
    90a8:	00 80 a1 26 	lhi	r21,98304;	[0xc000000]
    90ac:	55 00 b5 22 	ld32	r21,[r21,340]
    90b0:	1b b7 80 26 	lhi	r20,46875;	[0x5b8d800]
    90b4:	1b 20 b4 1a 	bgeu	r20,r21,9124 <pp_sram_init+0xe8>
    90b8:	40 00 c0 24 	lhi	r6,64;	[0x20000]
    90bc:	01 00 c6 50 	ori	r6,r6,1;	[0x1] 0x20001 <test_ecc_p_func+0x33d>
    90c0:	5d 00 83 26 	lhi	r20,196701;	[0x1802e800]
    90c4:	06 04 14 28 	sr32	r6,[r20,r0]
    90c8:	01 00 a0 52 	ori	r21,r0,1;	[0x1]
    90cc:	08 00 94 02 	addi	r20,r20,8
    90d0:	15 04 14 28 	sr32	r21,[r20,r0]
    90d4:	04 00 94 02 	addi	r20,r20,4
    90d8:	15 04 14 28 	sr32	r21,[r20,r0]
    90dc:	04 00 94 02 	addi	r20,r20,4
    90e0:	15 04 14 28 	sr32	r21,[r20,r0]
    90e4:	01 18 a0 52 	ori	r21,r0,6145;	[0x1801]
    90e8:	04 00 94 02 	addi	r20,r20,4
    90ec:	15 04 14 28 	sr32	r21,[r20,r0]
    90f0:	04 00 94 02 	addi	r20,r20,4
    90f4:	15 04 14 28 	sr32	r21,[r20,r0]
    90f8:	00 04 a0 26 	lhi	r21,1024;	[0x200000]
    90fc:	01 00 b5 52 	ori	r21,r21,1;	[0x1] 0x200001 <_erodata+0x1d8c45>
    9100:	04 00 94 02 	addi	r20,r20,4
    9104:	15 04 14 28 	sr32	r21,[r20,r0]
    9108:	04 00 94 02 	addi	r20,r20,4
    910c:	06 04 14 28 	sr32	r6,[r20,r0]
    9110:	04 00 a0 26 	lhi	r21,4;	[0x2000]
    9114:	0c 00 94 02 	addi	r20,r20,12
    9118:	15 04 14 28 	sr32	r21,[r20,r0]
    911c:	00 02 a0 52 	ori	r21,r0,512;	[0x200]
    9120:	19 00 00 14 	j	r0,9188 <pp_sram_init+0x14c>
    9124:	20 00 a0 26 	lhi	r21,32;	[0x10000]
    9128:	01 00 b5 52 	ori	r21,r21,1;	[0x1] 0x10001 <ECCGF2m_point_add+0x2d9>
    912c:	5d 00 83 26 	lhi	r20,196701;	[0x1802e800]
    9130:	15 04 14 28 	sr32	r21,[r20,r0]
    9134:	01 00 c0 50 	ori	r6,r0,1;	[0x1]
    9138:	08 00 94 02 	addi	r20,r20,8
    913c:	06 04 14 28 	sr32	r6,[r20,r0]
    9140:	04 00 94 02 	addi	r20,r20,4
    9144:	06 04 14 28 	sr32	r6,[r20,r0]
    9148:	04 00 94 02 	addi	r20,r20,4
    914c:	06 04 14 28 	sr32	r6,[r20,r0]
    9150:	01 08 a0 52 	ori	r21,r0,2049;	[0x801]
    9154:	04 00 94 02 	addi	r20,r20,4
    9158:	15 04 14 28 	sr32	r21,[r20,r0]
    915c:	04 00 94 02 	addi	r20,r20,4
    9160:	15 04 14 28 	sr32	r21,[r20,r0]
    9164:	00 02 a0 26 	lhi	r21,512;	[0x100000]
    9168:	01 00 b5 52 	ori	r21,r21,1;	[0x1] 0x100001 <_erodata+0xd8c45>
    916c:	04 00 94 02 	addi	r20,r20,4
    9170:	15 04 14 28 	sr32	r21,[r20,r0]
    9174:	04 00 94 02 	addi	r20,r20,4
    9178:	06 04 14 28 	sr32	r6,[r20,r0]
    917c:	0c 00 94 02 	addi	r20,r20,12
    9180:	00 04 14 28 	sr32	r0,[r20,r0]
    9184:	00 01 a0 52 	ori	r21,r0,256;	[0x100]
    9188:	04 00 94 02 	addi	r20,r20,4
    918c:	15 04 14 28 	sr32	r21,[r20,r0]
    9190:	00 0c a0 52 	ori	r21,r0,3072;	[0xc00]
    9194:	04 00 94 02 	addi	r20,r20,4
    9198:	15 04 14 28 	sr32	r21,[r20,r0]
    919c:	00 08 12 00 	ja	r0,r18,0;	[0x0]

000091a0 <init>:
    91a0:	f8 03 21 00 	addi	r1,r1,-8
    91a4:	01 04 01 23 	sd32	r24,[r1,4]
    91a8:	12 04 01 28 	sr32	r18,[r1,r0]
    91ac:	7e 00 c3 24 	lhi	r6,196734;	[0x1803f000]
    91b0:	04 05 c6 50 	ori	r6,r6,1284;	[0x504] 0x1803f504 <IPR+0x4f4>
    91b4:	14 00 06 28 	lr32	r20,[r6,r0]
    91b8:	00 1a a0 26 	lhi	r21,6656;	[0xd00000]
    91bc:	14 08 b4 0a 	or	r20,r20,r21
    91c0:	14 04 06 28 	sr32	r20,[r6,r0]
    91c4:	fc 03 c6 00 	addi	r6,r6,-4
    91c8:	14 00 06 28 	lr32	r20,[r6,r0]
    91cc:	ff e5 bf 26 	lhi	r21,2090495;	[0xff2ff800]
    91d0:	ff 07 b5 52 	ori	r21,r21,2047;	[0x7ff] 0xff2fffff <IPR+0xe72c0fef>
    91d4:	14 04 b4 0a 	and	r20,r20,r21
    91d8:	14 04 06 28 	sr32	r20,[r6,r0]
    91dc:	7e 00 d3 24 	lhi	r6,1245310;	[0x9803f000]
    91e0:	00 05 c6 50 	ori	r6,r6,1280;	[0x500] 0x9803f500 <IPR+0x800004f0>
    91e4:	14 00 06 28 	lr32	r20,[r6,r0]
    91e8:	ff e7 bf 26 	lhi	r21,2091007;	[0xff3ff800]
    91ec:	ff 07 b5 52 	ori	r21,r21,2047;	[0x7ff] 0xff3fffff <IPR+0xe73c0fef>
    91f0:	14 04 b4 0a 	and	r20,r20,r21
    91f4:	14 04 06 28 	sr32	r20,[r6,r0]
    91f8:	11 00 80 26 	lhi	r20,17;	[0x8800]
    91fc:	be 09 54 02 	ja	r18,r20,1784;	[0x6f8] 0x8ef8 <copy_rom_to_ram>
    9200:	1b b7 40 24 	lhi	r2,46875;	[0x5b8d800]
    9204:	11 00 80 26 	lhi	r20,17;	[0x8800]
    9208:	f7 08 54 02 	ja	r18,r20,988;	[0x3dc] 0x8bdc <set_sysclk>
    920c:	11 00 80 26 	lhi	r20,17;	[0x8800]
    9210:	d5 09 54 02 	ja	r18,r20,1876;	[0x754] 0x8f54 <uart_init>
    9214:	12 00 80 26 	lhi	r20,18;	[0x9000]
    9218:	0f 08 54 02 	ja	r18,r20,60;	[0x3c] 0x903c <pp_sram_init>
    921c:	15 00 80 26 	lhi	r20,21;	[0xa800]
    9220:	6a 09 54 02 	ja	r18,r20,1448;	[0x5a8] 0xada8 <usb_initialize>
    9224:	00 80 81 26 	lhi	r20,98304;	[0xc000000]
    9228:	f0 00 94 52 	ori	r20,r20,240;	[0xf0] 0xc0000f0 <chip96mode>
    922c:	03 38 14 28 	lr8u	r3,[r20,r0]
    9230:	4c 00 40 24 	lhi	r2,76;	[0x26000]
    9234:	4c 01 42 50 	ori	r2,r2,332;	[0x14c] 0x2614c <_etext+0x4>
    9238:	18 00 80 26 	lhi	r20,24;	[0xc000]
    923c:	21 09 54 02 	ja	r18,r20,1156;	[0x484] 0xc484 <sio_printf>
    9240:	20 00 80 26 	lhi	r20,32;	[0x10000]
    9244:	55 09 54 02 	ja	r18,r20,1364;	[0x554] 0x10554 <main>
    9248:	18 08 02 08 	or	r24,r2,r0
    924c:	02 08 38 10 	bnei	r24,1,9258 <init+0xb8>
    9250:	12 00 80 26 	lhi	r20,18;	[0x9000]
    9254:	9d 08 54 02 	ja	r18,r20,628;	[0x274] 0x9274 <fail_>
    9258:	02 08 18 10 	bnei	r24,0,9264 <init+0xc4>
    925c:	12 00 80 26 	lhi	r20,18;	[0x9000]
    9260:	a4 08 54 02 	ja	r18,r20,656;	[0x290] 0x9290 <pass_>
    9264:	12 00 01 28 	lr32	r18,[r1,r0]
    9268:	01 00 01 23 	ld32	r24,[r1,4]
    926c:	08 00 21 00 	addi	r1,r1,8
    9270:	00 08 12 00 	ja	r0,r18,0;	[0x0]

00009274 <fail_>:
    9274:	fc 03 21 00 	addi	r1,r1,-4
    9278:	12 04 01 28 	sr32	r18,[r1,r0]
    927c:	4c 00 40 24 	lhi	r2,76;	[0x26000]
    9280:	70 01 42 50 	ori	r2,r2,368;	[0x170] 0x26170 <_etext+0x28>
    9284:	12 00 80 26 	lhi	r20,18;	[0x9000]
    9288:	ab 08 54 02 	ja	r18,r20,684;	[0x2ac] 0x92ac <print_string>
    928c:	ff ff 1f 14 	j	r0,928c <fail_+0x18>

00009290 <pass_>:
    9290:	fc 03 21 00 	addi	r1,r1,-4
    9294:	12 04 01 28 	sr32	r18,[r1,r0]
    9298:	4c 00 40 24 	lhi	r2,76;	[0x26000]
    929c:	88 01 42 50 	ori	r2,r2,392;	[0x188] 0x26188 <_etext+0x40>
    92a0:	12 00 80 26 	lhi	r20,18;	[0x9000]
    92a4:	ab 08 54 02 	ja	r18,r20,684;	[0x2ac] 0x92ac <print_string>
    92a8:	ff ff 1f 14 	j	r0,92a8 <pass_+0x18>

000092ac <print_string>:
    92ac:	f8 03 21 00 	addi	r1,r1,-8
    92b0:	01 04 01 23 	sd32	r24,[r1,4]
    92b4:	12 04 01 28 	sr32	r18,[r1,r0]
    92b8:	18 08 02 08 	or	r24,r2,r0
    92bc:	14 38 18 28 	lr8u	r20,[r24,r0]
    92c0:	0b 18 14 10 	beqi	r20,0,92f0 <print_string+0x44>
    92c4:	14 38 18 28 	lr8u	r20,[r24,r0]
    92c8:	03 08 54 11 	bnei	r20,10,92d8 <print_string+0x2c>
    92cc:	0d 00 40 50 	ori	r2,r0,13;	[0xd]
    92d0:	12 00 80 26 	lhi	r20,18;	[0x9000]
    92d4:	f0 08 54 02 	ja	r18,r20,960;	[0x3c0] 0x93c0 <print_byte>
    92d8:	02 18 18 28 	lr8	r2,[r24,r0]
    92dc:	01 00 18 03 	addi	r24,r24,1
    92e0:	12 00 80 26 	lhi	r20,18;	[0x9000]
    92e4:	f0 08 54 02 	ja	r18,r20,960;	[0x3c0] 0x93c0 <print_byte>
    92e8:	14 38 18 28 	lr8u	r20,[r24,r0]
    92ec:	f5 0b 14 10 	bnei	r20,0,92c4 <print_string+0x18>
    92f0:	12 00 01 28 	lr32	r18,[r1,r0]
    92f4:	01 00 01 23 	ld32	r24,[r1,4]
    92f8:	08 00 21 00 	addi	r1,r1,8
    92fc:	00 08 12 00 	ja	r0,r18,0;	[0x0]

00009300 <print_long>:
    9300:	ec 03 21 00 	addi	r1,r1,-20
    9304:	04 04 41 22 	sd32	r18,[r1,16]
    9308:	06 08 00 08 	or	r6,r0,r0
    930c:	07 00 e0 50 	ori	r7,r0,7;	[0x7]
    9310:	02 10 86 02 	slli	r20,r6,2
    9314:	14 20 82 0a 	slr	r20,r2,r20
    9318:	0f 00 b4 32 	andi	r21,r20,15
    931c:	02 10 55 11 	blti	r21,10,9328 <print_long+0x28>
    9320:	37 00 b5 02 	addi	r21,r21,55
    9324:	01 00 00 14 	j	r0,932c <print_long+0x2c>
    9328:	30 00 b5 02 	addi	r21,r21,48
    932c:	14 80 c7 08 	sub	r20,r7,r6
    9330:	15 1c 81 2a 	sr8	r21,[r1,r20]
    9334:	01 00 c6 00 	addi	r6,r6,1
    9338:	f5 13 06 11 	blti	r6,8,9310 <print_long+0x10>
    933c:	0a 00 80 52 	ori	r20,r0,10;	[0xa]
    9340:	08 1c 81 22 	sd8	r20,[r1,8]
    9344:	09 1c 01 20 	sd8	r0,[r1,9]
    9348:	02 08 01 08 	or	r2,r1,r0
    934c:	12 00 80 26 	lhi	r20,18;	[0x9000]
    9350:	ab 08 54 02 	ja	r18,r20,684;	[0x2ac] 0x92ac <print_string>
    9354:	04 00 41 22 	ld32	r18,[r1,16]
    9358:	14 00 21 00 	addi	r1,r1,20
    935c:	00 08 12 00 	ja	r0,r18,0;	[0x0]

00009360 <delay_xxx>:
    9360:	ff 03 42 00 	addi	r2,r2,-1
    9364:	fe 0b e2 13 	bnei	r2,-1,9360 <delay_xxx>
    9368:	00 08 12 00 	ja	r0,r18,0;	[0x0]

0000936c <uart_send_byte>:
    936c:	18 10 42 00 	slli	r2,r2,24
    9370:	18 30 42 00 	sari	r2,r2,24
    9374:	5c 00 a3 26 	lhi	r21,196700;	[0x1802e000]
    9378:	18 04 b5 52 	ori	r21,r21,1048;	[0x418] 0x1802e418 <_stack+0xc02c41c>
    937c:	14 18 15 28 	lr8	r20,[r21,r0]
    9380:	20 00 94 32 	andi	r20,r20,32
    9384:	fd 0b 14 10 	bnei	r20,0,937c <uart_send_byte+0x10>
    9388:	5c 00 83 26 	lhi	r20,196700;	[0x1802e000]
    938c:	00 04 94 52 	ori	r20,r20,1024;	[0x400] 0x1802e400 <_stack+0xc02c404>
    9390:	02 1c 14 28 	sr8	r2,[r20,r0]
    9394:	00 08 12 00 	ja	r0,r18,0;	[0x0]

00009398 <uart_receive_byte>:
    9398:	5c 00 a3 26 	lhi	r21,196700;	[0x1802e000]
    939c:	18 04 b5 52 	ori	r21,r21,1048;	[0x418] 0x1802e418 <_stack+0xc02c41c>
    93a0:	14 18 15 28 	lr8	r20,[r21,r0]
    93a4:	10 00 94 32 	andi	r20,r20,16
    93a8:	fd 0b 14 10 	bnei	r20,0,93a0 <uart_receive_byte+0x8>
    93ac:	5c 00 83 26 	lhi	r20,196700;	[0x1802e000]
    93b0:	00 04 94 52 	ori	r20,r20,1024;	[0x400] 0x1802e400 <_stack+0xc02c404>
    93b4:	02 18 14 28 	lr8	r2,[r20,r0]
    93b8:	ff 00 42 30 	andi	r2,r2,255
    93bc:	00 08 12 00 	ja	r0,r18,0;	[0x0]

000093c0 <print_byte>:
    93c0:	fc 03 21 00 	addi	r1,r1,-4
    93c4:	12 04 01 28 	sr32	r18,[r1,r0]
    93c8:	18 10 42 00 	slli	r2,r2,24
    93cc:	18 30 42 00 	sari	r2,r2,24
    93d0:	12 00 80 26 	lhi	r20,18;	[0x9000]
    93d4:	db 08 54 02 	ja	r18,r20,876;	[0x36c] 0x936c <uart_send_byte>
    93d8:	12 00 01 28 	lr32	r18,[r1,r0]
    93dc:	04 00 21 00 	addi	r1,r1,4
    93e0:	00 08 12 00 	ja	r0,r18,0;	[0x0]

000093e4 <myprint_long>:
    93e4:	00 08 12 00 	ja	r0,r18,0;	[0x0]

000093e8 <setvbr_default>:
    93e8:	00 01 80 52 	ori	r20,r0,256;	[0x100]
    93ec:	0c 18 82 1a 	beq	r2,r20,9420 <setvbr_default+0x38>
    93f0:	02 10 54 18 	blt	r20,r2,93fc <setvbr_default+0x14>
    93f4:	04 18 02 10 	beqi	r2,0,9408 <setvbr_default+0x20>
    93f8:	0f 00 00 14 	j	r0,9438 <setvbr_default+0x50>
    93fc:	00 02 80 52 	ori	r20,r0,512;	[0x200]
    9400:	0a 18 82 1a 	beq	r2,r20,942c <setvbr_default+0x44>
    9404:	0c 00 00 14 	j	r0,9438 <setvbr_default+0x50>
    9408:	00 10 80 66 	rcr	r20,SR(0)
    940c:	70 00 94 32 	andi	r20,r20,112
    9410:	16 10 94 02 	slli	r20,r20,22
    9414:	00 00 b0 26 	lhi	r21,1048576;	[0x80000000]
    9418:	14 08 b4 0a 	or	r20,r20,r21
    941c:	05 00 00 14 	j	r0,9434 <setvbr_default+0x4c>
    9420:	00 80 81 26 	lhi	r20,98304;	[0xc000000]
    9424:	ac 00 94 52 	ori	r20,r20,172;	[0xac] 0xc0000ac <vector_exp_handler>
    9428:	02 00 00 14 	j	r0,9434 <setvbr_default+0x4c>
    942c:	00 80 81 26 	lhi	r20,98304;	[0xc000000]
    9430:	2c 00 94 52 	ori	r20,r20,44;	[0x2c] 0xc00002c <vector_intc_handler>
    9434:	04 44 74 28 	sx32	r4,[r20,r3]
    9438:	00 08 12 00 	ja	r0,r18,0;	[0x0]

0000943c <install_irq_handler>:
    943c:	fc 03 21 00 	addi	r1,r1,-4
    9440:	12 04 01 28 	sr32	r18,[r1,r0]
    9444:	15 08 02 08 	or	r21,r2,r0
    9448:	04 08 03 08 	or	r4,r3,r0
    944c:	00 10 80 66 	rcr	r20,SR(0)
    9450:	fe ff 94 32 	andi	r20,r20,-2
    9454:	00 14 80 66 	wcr	r20,SR(0)
    9458:	00 02 40 50 	ori	r2,r0,512;	[0x200]
    945c:	03 08 15 08 	or	r3,r21,r0
    9460:	12 00 80 26 	lhi	r20,18;	[0x9000]
    9464:	fa 08 54 02 	ja	r18,r20,1000;	[0x3e8] 0x93e8 <setvbr_default>
    9468:	12 00 01 28 	lr32	r18,[r1,r0]
    946c:	04 00 21 00 	addi	r1,r1,4
    9470:	00 08 12 00 	ja	r0,r18,0;	[0x0]

00009474 <disable_int>:
    9474:	7e 00 c3 24 	lhi	r6,196734;	[0x1803f000]
    9478:	04 00 c6 50 	ori	r6,r6,4;	[0x4] 0x1803f004 <IMR>
    947c:	01 00 80 52 	ori	r20,r0,1;	[0x1]
    9480:	14 10 54 08 	sll	r20,r20,r2
    9484:	15 00 06 28 	lr32	r21,[r6,r0]
    9488:	14 08 b4 0a 	or	r20,r20,r21
    948c:	14 04 06 28 	sr32	r20,[r6,r0]
    9490:	00 08 12 00 	ja	r0,r18,0;	[0x0]

00009494 <enable_int>:
    9494:	7e 00 c3 24 	lhi	r6,196734;	[0x1803f000]
    9498:	0c 00 c6 50 	ori	r6,r6,12;	[0xc] 0x1803f00c <IMR+0x8>
    949c:	01 00 80 52 	ori	r20,r0,1;	[0x1]
    94a0:	14 10 54 08 	sll	r20,r20,r2
    94a4:	15 00 06 28 	lr32	r21,[r6,r0]
    94a8:	14 08 b4 0a 	or	r20,r20,r21
    94ac:	14 04 06 28 	sr32	r20,[r6,r0]
    94b0:	00 10 80 66 	rcr	r20,SR(0)
    94b4:	01 00 94 52 	ori	r20,r20,1;	[0x1]
    94b8:	00 14 80 66 	wcr	r20,SR(0)
    94bc:	00 08 12 00 	ja	r0,r18,0;	[0x0]

000094c0 <SetVectorTable>:
    94c0:	fc 03 21 00 	addi	r1,r1,-4
    94c4:	12 04 01 28 	sr32	r18,[r1,r0]
    94c8:	14 08 02 08 	or	r20,r2,r0
    94cc:	04 08 03 08 	or	r4,r3,r0
    94d0:	00 0f 54 30 	andi	r2,r20,3840
    94d4:	ff 00 94 32 	andi	r20,r20,255
    94d8:	03 08 14 08 	or	r3,r20,r0
    94dc:	12 00 80 26 	lhi	r20,18;	[0x9000]
    94e0:	fa 08 54 02 	ja	r18,r20,1000;	[0x3e8] 0x93e8 <setvbr_default>
    94e4:	12 00 01 28 	lr32	r18,[r1,r0]
    94e8:	04 00 21 00 	addi	r1,r1,4
    94ec:	00 08 12 00 	ja	r0,r18,0;	[0x0]

000094f0 <clear_ipr_highest>:
    94f0:	00 80 81 26 	lhi	r20,98304;	[0xc000000]
    94f4:	09 00 94 22 	ld32	r20,[r20,36]
    94f8:	01 00 a0 52 	ori	r21,r0,1;	[0x1]
    94fc:	15 10 95 0a 	sll	r21,r21,r20
    9500:	7e 00 83 26 	lhi	r20,196734;	[0x1803f000]
    9504:	10 00 94 52 	ori	r20,r20,16;	[0x10] 0x1803f010 <IPR>
    9508:	15 04 14 28 	sr32	r21,[r20,r0]
    950c:	00 08 12 00 	ja	r0,r18,0;	[0x0]

00009510 <get_pending_int_source_one>:
    9510:	7e 00 83 26 	lhi	r20,196734;	[0x1803f000]
    9514:	10 00 94 52 	ori	r20,r20,16;	[0x10] 0x1803f010 <IPR>
    9518:	15 00 14 28 	lr32	r21,[r20,r0]
    951c:	00 50 b5 02 	csb	r21,r21
    9520:	1e 00 80 52 	ori	r20,r0,30;	[0x1e]
    9524:	14 80 b4 0a 	sub	r20,r20,r21
    9528:	00 80 61 26 	lhi	r19,98304;	[0xc000000]
    952c:	09 04 93 22 	sd32	r20,[r19,36]
    9530:	00 08 12 00 	ja	r0,r18,0;	[0x0]

00009534 <do_entry0>:
    9534:	fc 03 21 00 	addi	r1,r1,-4
    9538:	12 04 01 28 	sr32	r18,[r1,r0]
    953c:	00 10 40 64 	rcr	r2,SR(0)
    9540:	00 03 42 30 	andi	r2,r2,768
    9544:	08 20 42 00 	slri	r2,r2,8
    9548:	00 80 61 26 	lhi	r19,98304;	[0xc000000]
    954c:	0a 04 53 20 	sd32	r2,[r19,40]
    9550:	12 00 80 26 	lhi	r20,18;	[0x9000]
    9554:	f9 08 54 02 	ja	r18,r20,996;	[0x3e4] 0x93e4 <myprint_long>
    9558:	02 10 40 64 	rcr	r2,EPC(2)
    955c:	12 00 80 26 	lhi	r20,18;	[0x9000]
    9560:	f9 08 54 02 	ja	r18,r20,996;	[0x3e4] 0x93e4 <myprint_long>
    9564:	02 08 00 08 	or	r2,r0,r0
    9568:	12 00 01 28 	lr32	r18,[r1,r0]
    956c:	04 00 21 00 	addi	r1,r1,4
    9570:	00 08 12 00 	ja	r0,r18,0;	[0x0]

00009574 <do_entry1>:
    9574:	fc 03 21 00 	addi	r1,r1,-4
    9578:	12 04 01 28 	sr32	r18,[r1,r0]
    957c:	02 10 40 64 	rcr	r2,EPC(2)
    9580:	12 00 80 26 	lhi	r20,18;	[0x9000]
    9584:	f9 08 54 02 	ja	r18,r20,996;	[0x3e4] 0x93e4 <myprint_long>
    9588:	12 00 01 28 	lr32	r18,[r1,r0]
    958c:	04 00 21 00 	addi	r1,r1,4
    9590:	00 08 12 00 	ja	r0,r18,0;	[0x0]

00009594 <do_entry2>:
    9594:	fc 03 21 00 	addi	r1,r1,-4
    9598:	12 04 01 28 	sr32	r18,[r1,r0]
    959c:	02 00 40 50 	ori	r2,r0,2;	[0x2]
    95a0:	12 00 80 26 	lhi	r20,18;	[0x9000]
    95a4:	f9 08 54 02 	ja	r18,r20,996;	[0x3e4] 0x93e4 <myprint_long>
    95a8:	02 10 40 64 	rcr	r2,EPC(2)
    95ac:	12 00 80 26 	lhi	r20,18;	[0x9000]
    95b0:	f9 08 54 02 	ja	r18,r20,996;	[0x3e4] 0x93e4 <myprint_long>
    95b4:	12 00 01 28 	lr32	r18,[r1,r0]
    95b8:	04 00 21 00 	addi	r1,r1,4
    95bc:	00 08 12 00 	ja	r0,r18,0;	[0x0]

000095c0 <do_entry3>:
    95c0:	fc 03 21 00 	addi	r1,r1,-4
    95c4:	12 04 01 28 	sr32	r18,[r1,r0]
    95c8:	02 10 40 64 	rcr	r2,EPC(2)
    95cc:	12 00 80 26 	lhi	r20,18;	[0x9000]
    95d0:	f9 08 54 02 	ja	r18,r20,996;	[0x3e4] 0x93e4 <myprint_long>
    95d4:	12 00 01 28 	lr32	r18,[r1,r0]
    95d8:	04 00 21 00 	addi	r1,r1,4
    95dc:	00 08 12 00 	ja	r0,r18,0;	[0x0]

000095e0 <do_entry5>:
    95e0:	f8 03 21 00 	addi	r1,r1,-8
    95e4:	01 04 01 23 	sd32	r24,[r1,4]
    95e8:	12 04 01 28 	sr32	r18,[r1,r0]
    95ec:	18 08 02 08 	or	r24,r2,r0
    95f0:	4c 00 40 24 	lhi	r2,76;	[0x26000]
    95f4:	a0 01 42 50 	ori	r2,r2,416;	[0x1a0] 0x261a0 <_etext+0x58>
    95f8:	12 00 80 26 	lhi	r20,18;	[0x9000]
    95fc:	ab 08 54 02 	ja	r18,r20,684;	[0x2ac] 0x92ac <print_string>
    9600:	12 00 98 22 	ld32	r20,[r24,72]
    9604:	04 08 b4 10 	bnei	r20,5,9618 <do_entry5+0x38>
    9608:	14 00 18 28 	lr32	r20,[r24,r0]
    960c:	08 00 94 52 	ori	r20,r20,8;	[0x8]
    9610:	14 04 18 28 	sr32	r20,[r24,r0]
    9614:	08 00 00 14 	j	r0,9638 <do_entry5+0x58>
    9618:	12 00 58 20 	ld32	r2,[r24,72]
    961c:	64 00 80 52 	ori	r20,r0,100;	[0x64]
    9620:	05 18 82 1a 	beq	r2,r20,9638 <do_entry5+0x58>
    9624:	65 00 80 52 	ori	r20,r0,101;	[0x65]
    9628:	03 18 82 1a 	beq	r2,r20,9638 <do_entry5+0x58>
    962c:	02 10 40 64 	rcr	r2,EPC(2)
    9630:	12 00 80 26 	lhi	r20,18;	[0x9000]
    9634:	f9 08 54 02 	ja	r18,r20,996;	[0x3e4] 0x93e4 <myprint_long>
    9638:	02 08 00 08 	or	r2,r0,r0
    963c:	12 00 01 28 	lr32	r18,[r1,r0]
    9640:	01 00 01 23 	ld32	r24,[r1,4]
    9644:	08 00 21 00 	addi	r1,r1,8
    9648:	00 08 12 00 	ja	r0,r18,0;	[0x0]

0000964c <do_entry6>:
    964c:	e8 03 21 00 	addi	r1,r1,-24
    9650:	05 04 61 23 	sd32	r27,[r1,20]
    9654:	04 04 41 23 	sd32	r26,[r1,16]
    9658:	03 04 21 23 	sd32	r25,[r1,12]
    965c:	02 04 01 23 	sd32	r24,[r1,8]
    9660:	01 04 c1 22 	sd32	r22,[r1,4]
    9664:	12 04 01 28 	sr32	r18,[r1,r0]
    9668:	1a 08 02 08 	or	r26,r2,r0
    966c:	16 08 00 08 	or	r22,r0,r0
    9670:	4c 00 40 24 	lhi	r2,76;	[0x26000]
    9674:	a8 01 42 50 	ori	r2,r2,424;	[0x1a8] 0x261a8 <_etext+0x60>
    9678:	12 00 80 26 	lhi	r20,18;	[0x9000]
    967c:	ab 08 54 02 	ja	r18,r20,684;	[0x2ac] 0x92ac <print_string>
    9680:	00 20 00 67 	cld	r24,MMU(0),MCR(0)
    9684:	19 20 18 03 	slri	r24,r24,25
    9688:	00 80 61 26 	lhi	r19,98304;	[0xc000000]
    968c:	0a 04 13 23 	sd32	r24,[r19,40]
    9690:	02 20 20 67 	cld	r25,MMU(0),MEA(2)
    9694:	02 08 19 08 	or	r2,r25,r0
    9698:	12 00 80 26 	lhi	r20,18;	[0x9000]
    969c:	c0 08 54 02 	ja	r18,r20,768;	[0x300] 0x9300 <print_long>
    96a0:	01 00 5a 20 	ld32	r2,[r26,4]
    96a4:	12 00 80 26 	lhi	r20,18;	[0x9000]
    96a8:	c0 08 54 02 	ja	r18,r20,768;	[0x300] 0x9300 <print_long>
    96ac:	02 08 18 08 	or	r2,r24,r0
    96b0:	12 00 80 26 	lhi	r20,18;	[0x9000]
    96b4:	c0 08 54 02 	ja	r18,r20,768;	[0x300] 0x9300 <print_long>
    96b8:	1b 08 00 08 	or	r27,r0,r0
    96bc:	ff 03 18 03 	addi	r24,r24,-1
    96c0:	12 00 a0 26 	lhi	r21,18;	[0x9000]
    96c4:	dc 06 b5 52 	ori	r21,r21,1756;	[0x6dc] 0x96dc <do_entry6+0x90>
    96c8:	44 00 80 52 	ori	r20,r0,68;	[0x44]
    96cc:	83 31 14 1b 	bltu	r20,r24,9cdc <do_entry6+0x690>
    96d0:	14 68 15 2b 	lx16u	r20,[r21,r24]
    96d4:	14 00 b4 0a 	add	r20,r20,r21
    96d8:	00 08 14 00 	ja	r0,r20,0;	[0x0]
    96dc:	24 05 00 06 	.long 0x6000524
    96e0:	00 06 00 06 	.long 0x6000600
    96e4:	ec 04 00 06 	.long 0x60004ec
    96e8:	00 06 d0 05 	.long 0x5d00600
    96ec:	e8 05 dc 05 	.long 0x5dc05e8
    96f0:	00 06 b8 05 	.long 0x5b80600
    96f4:	c4 05 00 06 	.long 0x60005c4
    96f8:	00 06 6c 05 	.long 0x56c0600
    96fc:	58 05 80 05 	.long 0x5800558
    9700:	00 06 30 05 	.long 0x5300600
    9704:	44 05 00 06 	.long 0x6000544
    9708:	00 06 00 06 	.long 0x6000600
    970c:	00 06 00 06 	.long 0x6000600
    9710:	00 06 00 06 	.long 0x6000600
    9714:	00 06 00 06 	.long 0x6000600
    9718:	00 06 f8 04 	.long 0x4f80600
    971c:	18 05 0c 05 	.long 0x50c0518
    9720:	00 06 d4 04 	.long 0x4d40600
    9724:	e0 04 00 06 	.long 0x60004e0
    9728:	00 06 00 06 	.long 0x6000600
    972c:	00 06 00 06 	.long 0x6000600
    9730:	00 06 00 06 	.long 0x6000600
    9734:	00 06 00 06 	.long 0x6000600
    9738:	00 06 00 06 	.long 0x6000600
    973c:	00 06 00 06 	.long 0x6000600
    9740:	00 06 00 06 	.long 0x6000600
    9744:	00 06 00 06 	.long 0x6000600
    9748:	00 06 00 06 	.long 0x6000600
    974c:	00 06 00 06 	.long 0x6000600
    9750:	00 06 00 06 	.long 0x6000600
    9754:	00 06 00 06 	.long 0x6000600
    9758:	00 06 40 02 	dcache	18,r0,-2048
    975c:	f8 03 1c 03 	addi	r24,r28,-8
    9760:	00 06 8c 00 	dcache	Allocate(4),r12,-2048
    9764:	64 01 00 00 	addi	r0,r0,356
    9768:	00 80 81 26 	lhi	r20,98304;	[0xc000000]
    976c:	2b 00 94 22 	ld32	r20,[r20,172]
    9770:	58 09 14 10 	bnei	r20,0,9cd4 <do_entry6+0x688>
    9774:	14 20 b9 02 	slri	r21,r25,20
    9778:	ff 01 80 26 	lhi	r20,511;	[0xff800]
    977c:	ff 07 94 52 	ori	r20,r20,2047;	[0x7ff] 0xfffff <_erodata+0xd8c43>
    9780:	18 04 99 0a 	and	r24,r25,r20
    9784:	06 08 00 08 	or	r6,r0,r0
    9788:	80 01 80 52 	ori	r20,r0,384;	[0x180]
    978c:	13 18 95 1a 	beq	r21,r20,97dc <do_entry6+0x190>
    9790:	08 30 b4 1a 	bltu	r20,r21,97b4 <do_entry6+0x168>
    9794:	80 00 80 52 	ori	r20,r0,128;	[0x80]
    9798:	16 18 95 1a 	beq	r21,r20,97f4 <do_entry6+0x1a8>
    979c:	02 30 b4 1a 	bltu	r20,r21,97a8 <do_entry6+0x15c>
    97a0:	17 18 15 10 	beqi	r21,0,9800 <do_entry6+0x1b4>
    97a4:	1a 00 00 14 	j	r0,9810 <do_entry6+0x1c4>
    97a8:	00 01 80 52 	ori	r20,r0,256;	[0x100]
    97ac:	0e 18 95 1a 	beq	r21,r20,97e8 <do_entry6+0x19c>
    97b0:	17 00 00 14 	j	r0,9810 <do_entry6+0x1c4>
    97b4:	80 0c 80 52 	ori	r20,r0,3200;	[0xc80]
    97b8:	0e 18 95 1a 	beq	r21,r20,97f4 <do_entry6+0x1a8>
    97bc:	03 30 b4 1a 	bltu	r20,r21,97cc <do_entry6+0x180>
    97c0:	00 0c 80 52 	ori	r20,r0,3072;	[0xc00]
    97c4:	0e 18 95 1a 	beq	r21,r20,9800 <do_entry6+0x1b4>
    97c8:	11 00 00 14 	j	r0,9810 <do_entry6+0x1c4>
    97cc:	00 0d 80 52 	ori	r20,r0,3328;	[0xd00]
    97d0:	05 18 95 1a 	beq	r21,r20,97e8 <do_entry6+0x19c>
    97d4:	80 0d 80 52 	ori	r20,r0,3456;	[0xd80]
    97d8:	0d 08 95 1a 	bne	r21,r20,9810 <do_entry6+0x1c4>
    97dc:	80 01 a0 26 	lhi	r21,384;	[0xc0000]
    97e0:	7f 00 80 26 	lhi	r20,127;	[0x3f800]
    97e4:	08 00 00 14 	j	r0,9808 <do_entry6+0x1bc>
    97e8:	00 01 a0 26 	lhi	r21,256;	[0x80000]
    97ec:	ff 1f 80 52 	ori	r20,r0,8191;	[0x1fff]
    97f0:	06 00 00 14 	j	r0,980c <do_entry6+0x1c0>
    97f4:	80 00 a0 26 	lhi	r21,128;	[0x40000]
    97f8:	ff 7f 80 52 	ori	r20,r0,32767;	[0x7fff]
    97fc:	03 00 00 14 	j	r0,980c <do_entry6+0x1c0>
    9800:	15 08 00 08 	or	r21,r0,r0
    9804:	3f 00 80 26 	lhi	r20,63;	[0x1f800]
    9808:	ff 07 94 52 	ori	r20,r20,2047;	[0x7ff] 0x1ffff <test_ecc_p_func+0x33b>
    980c:	01 20 14 1b 	bgeu	r20,r24,9814 <do_entry6+0x1c8>
    9810:	01 00 c0 50 	ori	r6,r0,1;	[0x1]
    9814:	18 00 b8 0a 	add	r24,r24,r21
    9818:	02 18 06 10 	beqi	r6,0,9824 <do_entry6+0x1d8>
    981c:	12 00 80 26 	lhi	r20,18;	[0x9000]
    9820:	9d 08 54 02 	ja	r18,r20,628;	[0x274] 0x9274 <fail_>
    9824:	ff 01 80 26 	lhi	r20,511;	[0xff800]
    9828:	c0 07 94 52 	ori	r20,r20,1984;	[0x7c0] 0xfffc0 <_erodata+0xd8c04>
    982c:	14 04 98 0a 	and	r20,r24,r20
    9830:	32 00 94 52 	ori	r20,r20,50;	[0x32]
    9834:	04 24 80 66 	cst	r20,MMU(0),CED(4)
    9838:	00 24 79 00 	dtlb	Write(3),r25
    983c:	28 01 00 14 	j	r0,9ce0 <do_entry6+0x694>
    9840:	00 80 81 26 	lhi	r20,98304;	[0xc000000]
    9844:	b0 00 94 52 	ori	r20,r20,176;	[0xb0] 0xc0000b0 <vector_exp_handler+0x4>
    9848:	14 00 14 28 	lr32	r20,[r20,r0]
    984c:	21 09 14 10 	bnei	r20,0,9cd4 <do_entry6+0x688>
    9850:	14 20 b9 02 	slri	r21,r25,20
    9854:	ff 01 80 26 	lhi	r20,511;	[0xff800]
    9858:	ff 07 94 52 	ori	r20,r20,2047;	[0x7ff] 0xfffff <_erodata+0xd8c43>
    985c:	18 04 99 0a 	and	r24,r25,r20
    9860:	06 08 00 08 	or	r6,r0,r0
    9864:	80 01 80 52 	ori	r20,r0,384;	[0x180]
    9868:	13 18 95 1a 	beq	r21,r20,98b8 <do_entry6+0x26c>
    986c:	08 30 b4 1a 	bltu	r20,r21,9890 <do_entry6+0x244>
    9870:	80 00 80 52 	ori	r20,r0,128;	[0x80]
    9874:	16 18 95 1a 	beq	r21,r20,98d0 <do_entry6+0x284>
    9878:	02 30 b4 1a 	bltu	r20,r21,9884 <do_entry6+0x238>
    987c:	17 18 15 10 	beqi	r21,0,98dc <do_entry6+0x290>
    9880:	1a 00 00 14 	j	r0,98ec <do_entry6+0x2a0>
    9884:	00 01 80 52 	ori	r20,r0,256;	[0x100]
    9888:	0e 18 95 1a 	beq	r21,r20,98c4 <do_entry6+0x278>
    988c:	17 00 00 14 	j	r0,98ec <do_entry6+0x2a0>
    9890:	80 0c 80 52 	ori	r20,r0,3200;	[0xc80]
    9894:	0e 18 95 1a 	beq	r21,r20,98d0 <do_entry6+0x284>
    9898:	03 30 b4 1a 	bltu	r20,r21,98a8 <do_entry6+0x25c>
    989c:	00 0c 80 52 	ori	r20,r0,3072;	[0xc00]
    98a0:	0e 18 95 1a 	beq	r21,r20,98dc <do_entry6+0x290>
    98a4:	11 00 00 14 	j	r0,98ec <do_entry6+0x2a0>
    98a8:	00 0d 80 52 	ori	r20,r0,3328;	[0xd00]
    98ac:	05 18 95 1a 	beq	r21,r20,98c4 <do_entry6+0x278>
    98b0:	80 0d 80 52 	ori	r20,r0,3456;	[0xd80]
    98b4:	0d 08 95 1a 	bne	r21,r20,98ec <do_entry6+0x2a0>
    98b8:	80 01 a0 26 	lhi	r21,384;	[0xc0000]
    98bc:	7f 00 80 26 	lhi	r20,127;	[0x3f800]
    98c0:	08 00 00 14 	j	r0,98e4 <do_entry6+0x298>
    98c4:	00 01 a0 26 	lhi	r21,256;	[0x80000]
    98c8:	ff 1f 80 52 	ori	r20,r0,8191;	[0x1fff]
    98cc:	06 00 00 14 	j	r0,98e8 <do_entry6+0x29c>
    98d0:	80 00 a0 26 	lhi	r21,128;	[0x40000]
    98d4:	ff 7f 80 52 	ori	r20,r0,32767;	[0x7fff]
    98d8:	03 00 00 14 	j	r0,98e8 <do_entry6+0x29c>
    98dc:	15 08 00 08 	or	r21,r0,r0
    98e0:	3f 00 80 26 	lhi	r20,63;	[0x1f800]
    98e4:	ff 07 94 52 	ori	r20,r20,2047;	[0x7ff] 0x1ffff <test_ecc_p_func+0x33b>
    98e8:	01 20 14 1b 	bgeu	r20,r24,98f0 <do_entry6+0x2a4>
    98ec:	01 00 c0 50 	ori	r6,r0,1;	[0x1]
    98f0:	18 00 b8 0a 	add	r24,r24,r21
    98f4:	02 18 06 10 	beqi	r6,0,9900 <do_entry6+0x2b4>
    98f8:	12 00 80 26 	lhi	r20,18;	[0x9000]
    98fc:	9d 08 54 02 	ja	r18,r20,628;	[0x274] 0x9274 <fail_>
    9900:	ff 01 80 26 	lhi	r20,511;	[0xff800]
    9904:	c0 07 94 52 	ori	r20,r20,1984;	[0x7c0] 0xfffc0 <_erodata+0xd8c04>
    9908:	14 04 98 0a 	and	r20,r24,r20
    990c:	32 00 94 52 	ori	r20,r20,50;	[0x32]
    9910:	04 24 80 66 	cst	r20,MMU(0),CED(4)
    9914:	00 24 79 00 	dtlb	Write(3),r25
    9918:	f1 00 00 14 	j	r0,9ce0 <do_entry6+0x694>
    991c:	00 80 81 26 	lhi	r20,98304;	[0xc000000]
    9920:	b4 00 94 52 	ori	r20,r20,180;	[0xb4] 0xc0000b4 <vector_exp_handler+0x8>
    9924:	14 00 14 28 	lr32	r20,[r20,r0]
    9928:	ea 08 14 10 	bnei	r20,0,9cd4 <do_entry6+0x688>
    992c:	14 20 b9 02 	slri	r21,r25,20
    9930:	ff 01 80 26 	lhi	r20,511;	[0xff800]
    9934:	ff 07 94 52 	ori	r20,r20,2047;	[0x7ff] 0xfffff <_erodata+0xd8c43>
    9938:	18 04 99 0a 	and	r24,r25,r20
    993c:	06 08 00 08 	or	r6,r0,r0
    9940:	80 01 80 52 	ori	r20,r0,384;	[0x180]
    9944:	13 18 95 1a 	beq	r21,r20,9994 <do_entry6+0x348>
    9948:	08 30 b4 1a 	bltu	r20,r21,996c <do_entry6+0x320>
    994c:	80 00 80 52 	ori	r20,r0,128;	[0x80]
    9950:	16 18 95 1a 	beq	r21,r20,99ac <do_entry6+0x360>
    9954:	02 30 b4 1a 	bltu	r20,r21,9960 <do_entry6+0x314>
    9958:	17 18 15 10 	beqi	r21,0,99b8 <do_entry6+0x36c>
    995c:	1a 00 00 14 	j	r0,99c8 <do_entry6+0x37c>
    9960:	00 01 80 52 	ori	r20,r0,256;	[0x100]
    9964:	0e 18 95 1a 	beq	r21,r20,99a0 <do_entry6+0x354>
    9968:	17 00 00 14 	j	r0,99c8 <do_entry6+0x37c>
    996c:	80 0c 80 52 	ori	r20,r0,3200;	[0xc80]
    9970:	0e 18 95 1a 	beq	r21,r20,99ac <do_entry6+0x360>
    9974:	03 30 b4 1a 	bltu	r20,r21,9984 <do_entry6+0x338>
    9978:	00 0c 80 52 	ori	r20,r0,3072;	[0xc00]
    997c:	0e 18 95 1a 	beq	r21,r20,99b8 <do_entry6+0x36c>
    9980:	11 00 00 14 	j	r0,99c8 <do_entry6+0x37c>
    9984:	00 0d 80 52 	ori	r20,r0,3328;	[0xd00]
    9988:	05 18 95 1a 	beq	r21,r20,99a0 <do_entry6+0x354>
    998c:	80 0d 80 52 	ori	r20,r0,3456;	[0xd80]
    9990:	0d 08 95 1a 	bne	r21,r20,99c8 <do_entry6+0x37c>
    9994:	80 01 a0 26 	lhi	r21,384;	[0xc0000]
    9998:	7f 00 80 26 	lhi	r20,127;	[0x3f800]
    999c:	08 00 00 14 	j	r0,99c0 <do_entry6+0x374>
    99a0:	00 01 a0 26 	lhi	r21,256;	[0x80000]
    99a4:	ff 1f 80 52 	ori	r20,r0,8191;	[0x1fff]
    99a8:	06 00 00 14 	j	r0,99c4 <do_entry6+0x378>
    99ac:	80 00 a0 26 	lhi	r21,128;	[0x40000]
    99b0:	ff 7f 80 52 	ori	r20,r0,32767;	[0x7fff]
    99b4:	03 00 00 14 	j	r0,99c4 <do_entry6+0x378>
    99b8:	15 08 00 08 	or	r21,r0,r0
    99bc:	3f 00 80 26 	lhi	r20,63;	[0x1f800]
    99c0:	ff 07 94 52 	ori	r20,r20,2047;	[0x7ff] 0x1ffff <test_ecc_p_func+0x33b>
    99c4:	01 20 14 1b 	bgeu	r20,r24,99cc <do_entry6+0x380>
    99c8:	01 00 c0 50 	ori	r6,r0,1;	[0x1]
    99cc:	18 00 b8 0a 	add	r24,r24,r21
    99d0:	02 18 06 10 	beqi	r6,0,99dc <do_entry6+0x390>
    99d4:	12 00 80 26 	lhi	r20,18;	[0x9000]
    99d8:	9d 08 54 02 	ja	r18,r20,628;	[0x274] 0x9274 <fail_>
    99dc:	ff 01 80 26 	lhi	r20,511;	[0xff800]
    99e0:	c0 07 94 52 	ori	r20,r20,1984;	[0x7c0] 0xfffc0 <_erodata+0xd8c04>
    99e4:	14 04 98 0a 	and	r20,r24,r20
    99e8:	3e 00 94 52 	ori	r20,r20,62;	[0x3e]
    99ec:	04 24 80 66 	cst	r20,MMU(0),CED(4)
    99f0:	00 24 79 00 	dtlb	Write(3),r25
    99f4:	ba 00 00 14 	j	r0,9ce0 <do_entry6+0x694>
    99f8:	00 80 81 26 	lhi	r20,98304;	[0xc000000]
    99fc:	b8 00 94 52 	ori	r20,r20,184;	[0xb8] 0xc0000b8 <vector_exp_handler+0xc>
    9a00:	14 00 14 28 	lr32	r20,[r20,r0]
    9a04:	b3 08 14 10 	bnei	r20,0,9cd4 <do_entry6+0x688>
    9a08:	14 20 b9 02 	slri	r21,r25,20
    9a0c:	ff 01 80 26 	lhi	r20,511;	[0xff800]
    9a10:	ff 07 94 52 	ori	r20,r20,2047;	[0x7ff] 0xfffff <_erodata+0xd8c43>
    9a14:	18 04 99 0a 	and	r24,r25,r20
    9a18:	06 08 00 08 	or	r6,r0,r0
    9a1c:	80 01 80 52 	ori	r20,r0,384;	[0x180]
    9a20:	13 18 95 1a 	beq	r21,r20,9a70 <do_entry6+0x424>
    9a24:	08 30 b4 1a 	bltu	r20,r21,9a48 <do_entry6+0x3fc>
    9a28:	80 00 80 52 	ori	r20,r0,128;	[0x80]
    9a2c:	16 18 95 1a 	beq	r21,r20,9a88 <do_entry6+0x43c>
    9a30:	02 30 b4 1a 	bltu	r20,r21,9a3c <do_entry6+0x3f0>
    9a34:	17 18 15 10 	beqi	r21,0,9a94 <do_entry6+0x448>
    9a38:	1a 00 00 14 	j	r0,9aa4 <do_entry6+0x458>
    9a3c:	00 01 80 52 	ori	r20,r0,256;	[0x100]
    9a40:	0e 18 95 1a 	beq	r21,r20,9a7c <do_entry6+0x430>
    9a44:	17 00 00 14 	j	r0,9aa4 <do_entry6+0x458>
    9a48:	80 0c 80 52 	ori	r20,r0,3200;	[0xc80]
    9a4c:	0e 18 95 1a 	beq	r21,r20,9a88 <do_entry6+0x43c>
    9a50:	03 30 b4 1a 	bltu	r20,r21,9a60 <do_entry6+0x414>
    9a54:	00 0c 80 52 	ori	r20,r0,3072;	[0xc00]
    9a58:	0e 18 95 1a 	beq	r21,r20,9a94 <do_entry6+0x448>
    9a5c:	11 00 00 14 	j	r0,9aa4 <do_entry6+0x458>
    9a60:	00 0d 80 52 	ori	r20,r0,3328;	[0xd00]
    9a64:	05 18 95 1a 	beq	r21,r20,9a7c <do_entry6+0x430>
    9a68:	80 0d 80 52 	ori	r20,r0,3456;	[0xd80]
    9a6c:	0d 08 95 1a 	bne	r21,r20,9aa4 <do_entry6+0x458>
    9a70:	80 01 a0 26 	lhi	r21,384;	[0xc0000]
    9a74:	7f 00 80 26 	lhi	r20,127;	[0x3f800]
    9a78:	08 00 00 14 	j	r0,9a9c <do_entry6+0x450>
    9a7c:	00 01 a0 26 	lhi	r21,256;	[0x80000]
    9a80:	ff 1f 80 52 	ori	r20,r0,8191;	[0x1fff]
    9a84:	06 00 00 14 	j	r0,9aa0 <do_entry6+0x454>
    9a88:	80 00 a0 26 	lhi	r21,128;	[0x40000]
    9a8c:	ff 7f 80 52 	ori	r20,r0,32767;	[0x7fff]
    9a90:	03 00 00 14 	j	r0,9aa0 <do_entry6+0x454>
    9a94:	15 08 00 08 	or	r21,r0,r0
    9a98:	3f 00 80 26 	lhi	r20,63;	[0x1f800]
    9a9c:	ff 07 94 52 	ori	r20,r20,2047;	[0x7ff] 0x1ffff <test_ecc_p_func+0x33b>
    9aa0:	01 20 14 1b 	bgeu	r20,r24,9aa8 <do_entry6+0x45c>
    9aa4:	01 00 c0 50 	ori	r6,r0,1;	[0x1]
    9aa8:	18 00 b8 0a 	add	r24,r24,r21
    9aac:	02 18 06 10 	beqi	r6,0,9ab8 <do_entry6+0x46c>
    9ab0:	12 00 80 26 	lhi	r20,18;	[0x9000]
    9ab4:	9d 08 54 02 	ja	r18,r20,628;	[0x274] 0x9274 <fail_>
    9ab8:	ff 01 80 26 	lhi	r20,511;	[0xff800]
    9abc:	c0 07 94 52 	ori	r20,r20,1984;	[0x7c0] 0xfffc0 <_erodata+0xd8c04>
    9ac0:	14 04 98 0a 	and	r20,r24,r20
    9ac4:	3e 00 94 52 	ori	r20,r20,62;	[0x3e]
    9ac8:	04 24 80 66 	cst	r20,MMU(0),CED(4)
    9acc:	00 24 79 00 	dtlb	Write(3),r25
    9ad0:	83 00 00 14 	j	r0,9ce0 <do_entry6+0x694>
    9ad4:	00 80 81 26 	lhi	r20,98304;	[0xc000000]
    9ad8:	bc 00 94 52 	ori	r20,r20,188;	[0xbc] 0xc0000bc <vector_exp_handler+0x10>
    9adc:	14 00 14 28 	lr32	r20,[r20,r0]
    9ae0:	7c 08 14 10 	bnei	r20,0,9cd4 <do_entry6+0x688>
    9ae4:	14 20 b9 02 	slri	r21,r25,20
    9ae8:	ff 01 80 26 	lhi	r20,511;	[0xff800]
    9aec:	ff 07 94 52 	ori	r20,r20,2047;	[0x7ff] 0xfffff <_erodata+0xd8c43>
    9af0:	18 04 99 0a 	and	r24,r25,r20
    9af4:	06 08 00 08 	or	r6,r0,r0
    9af8:	80 01 80 52 	ori	r20,r0,384;	[0x180]
    9afc:	13 18 95 1a 	beq	r21,r20,9b4c <do_entry6+0x500>
    9b00:	08 30 b4 1a 	bltu	r20,r21,9b24 <do_entry6+0x4d8>
    9b04:	80 00 80 52 	ori	r20,r0,128;	[0x80]
    9b08:	16 18 95 1a 	beq	r21,r20,9b64 <do_entry6+0x518>
    9b0c:	02 30 b4 1a 	bltu	r20,r21,9b18 <do_entry6+0x4cc>
    9b10:	17 18 15 10 	beqi	r21,0,9b70 <do_entry6+0x524>
    9b14:	1a 00 00 14 	j	r0,9b80 <do_entry6+0x534>
    9b18:	00 01 80 52 	ori	r20,r0,256;	[0x100]
    9b1c:	0e 18 95 1a 	beq	r21,r20,9b58 <do_entry6+0x50c>
    9b20:	17 00 00 14 	j	r0,9b80 <do_entry6+0x534>
    9b24:	80 0c 80 52 	ori	r20,r0,3200;	[0xc80]
    9b28:	0e 18 95 1a 	beq	r21,r20,9b64 <do_entry6+0x518>
    9b2c:	03 30 b4 1a 	bltu	r20,r21,9b3c <do_entry6+0x4f0>
    9b30:	00 0c 80 52 	ori	r20,r0,3072;	[0xc00]
    9b34:	0e 18 95 1a 	beq	r21,r20,9b70 <do_entry6+0x524>
    9b38:	11 00 00 14 	j	r0,9b80 <do_entry6+0x534>
    9b3c:	00 0d 80 52 	ori	r20,r0,3328;	[0xd00]
    9b40:	05 18 95 1a 	beq	r21,r20,9b58 <do_entry6+0x50c>
    9b44:	80 0d 80 52 	ori	r20,r0,3456;	[0xd80]
    9b48:	0d 08 95 1a 	bne	r21,r20,9b80 <do_entry6+0x534>
    9b4c:	80 01 a0 26 	lhi	r21,384;	[0xc0000]
    9b50:	7f 00 80 26 	lhi	r20,127;	[0x3f800]
    9b54:	08 00 00 14 	j	r0,9b78 <do_entry6+0x52c>
    9b58:	00 01 a0 26 	lhi	r21,256;	[0x80000]
    9b5c:	ff 1f 80 52 	ori	r20,r0,8191;	[0x1fff]
    9b60:	06 00 00 14 	j	r0,9b7c <do_entry6+0x530>
    9b64:	80 00 a0 26 	lhi	r21,128;	[0x40000]
    9b68:	ff 7f 80 52 	ori	r20,r0,32767;	[0x7fff]
    9b6c:	03 00 00 14 	j	r0,9b7c <do_entry6+0x530>
    9b70:	15 08 00 08 	or	r21,r0,r0
    9b74:	3f 00 80 26 	lhi	r20,63;	[0x1f800]
    9b78:	ff 07 94 52 	ori	r20,r20,2047;	[0x7ff] 0x1ffff <test_ecc_p_func+0x33b>
    9b7c:	01 20 14 1b 	bgeu	r20,r24,9b84 <do_entry6+0x538>
    9b80:	01 00 c0 50 	ori	r6,r0,1;	[0x1]
    9b84:	18 00 b8 0a 	add	r24,r24,r21
    9b88:	02 18 06 10 	beqi	r6,0,9b94 <do_entry6+0x548>
    9b8c:	12 00 80 26 	lhi	r20,18;	[0x9000]
    9b90:	9d 08 54 02 	ja	r18,r20,628;	[0x274] 0x9274 <fail_>
    9b94:	ff 01 80 26 	lhi	r20,511;	[0xff800]
    9b98:	c0 07 94 52 	ori	r20,r20,1984;	[0x7c0] 0xfffc0 <_erodata+0xd8c04>
    9b9c:	14 04 98 0a 	and	r20,r24,r20
    9ba0:	3e 00 94 52 	ori	r20,r20,62;	[0x3e]
    9ba4:	04 24 80 66 	cst	r20,MMU(0),CED(4)
    9ba8:	00 24 79 00 	dtlb	Write(3),r25
    9bac:	4c 00 00 14 	j	r0,9ce0 <do_entry6+0x694>
    9bb0:	00 80 81 26 	lhi	r20,98304;	[0xc000000]
    9bb4:	c0 00 94 52 	ori	r20,r20,192;	[0xc0] 0xc0000c0 <vector_exp_handler+0x14>
    9bb8:	44 00 00 14 	j	r0,9ccc <do_entry6+0x680>
    9bbc:	00 80 81 26 	lhi	r20,98304;	[0xc000000]
    9bc0:	c4 00 94 52 	ori	r20,r20,196;	[0xc4] 0xc0000c4 <vector_exp_handler+0x18>
    9bc4:	41 00 00 14 	j	r0,9ccc <do_entry6+0x680>
    9bc8:	00 80 81 26 	lhi	r20,98304;	[0xc000000]
    9bcc:	fc 00 94 52 	ori	r20,r20,252;	[0xfc] 0xc0000fc <key_enable>
    9bd0:	3e 00 00 14 	j	r0,9ccc <do_entry6+0x680>
    9bd4:	00 80 81 26 	lhi	r20,98304;	[0xc000000]
    9bd8:	c8 00 94 52 	ori	r20,r20,200;	[0xc8] 0xc0000c8 <vector_exp_handler+0x1c>
    9bdc:	14 00 14 28 	lr32	r20,[r20,r0]
    9be0:	28 18 14 10 	beqi	r20,0,9c84 <do_entry6+0x638>
    9be4:	3b 00 00 14 	j	r0,9cd4 <do_entry6+0x688>
    9be8:	00 80 81 26 	lhi	r20,98304;	[0xc000000]
    9bec:	cc 00 94 52 	ori	r20,r20,204;	[0xcc] 0xc0000cc <vector_exp_handler+0x20>
    9bf0:	36 00 00 14 	j	r0,9ccc <do_entry6+0x680>
    9bf4:	00 80 81 26 	lhi	r20,98304;	[0xc000000]
    9bf8:	d0 00 94 52 	ori	r20,r20,208;	[0xd0] 0xc0000d0 <vector_exp_handler+0x24>
    9bfc:	33 00 00 14 	j	r0,9ccc <do_entry6+0x680>
    9c00:	00 80 81 26 	lhi	r20,98304;	[0xc000000]
    9c04:	00 01 94 52 	ori	r20,r20,256;	[0x100] 0xc000100 <key_enable+0x4>
    9c08:	30 00 00 14 	j	r0,9ccc <do_entry6+0x680>
    9c0c:	00 80 81 26 	lhi	r20,98304;	[0xc000000]
    9c10:	d4 00 94 52 	ori	r20,r20,212;	[0xd4] 0xc0000d4 <vector_exp_handler+0x28>
    9c14:	14 00 14 28 	lr32	r20,[r20,r0]
    9c18:	14 18 14 10 	beqi	r20,0,9c6c <do_entry6+0x620>
    9c1c:	2d 00 00 14 	j	r0,9cd4 <do_entry6+0x688>
    9c20:	00 80 81 26 	lhi	r20,98304;	[0xc000000]
    9c24:	d8 00 94 52 	ori	r20,r20,216;	[0xd8] 0xc0000d8 <vector_exp_handler+0x2c>
    9c28:	14 00 14 28 	lr32	r20,[r20,r0]
    9c2c:	0f 18 14 10 	beqi	r20,0,9c6c <do_entry6+0x620>
    9c30:	28 00 00 14 	j	r0,9cd4 <do_entry6+0x688>
    9c34:	00 80 81 26 	lhi	r20,98304;	[0xc000000]
    9c38:	e4 00 94 52 	ori	r20,r20,228;	[0xe4] 0xc0000e4 <vector_exp_handler+0x38>
    9c3c:	14 00 14 28 	lr32	r20,[r20,r0]
    9c40:	0a 18 14 10 	beqi	r20,0,9c6c <do_entry6+0x620>
    9c44:	23 00 00 14 	j	r0,9cd4 <do_entry6+0x688>
    9c48:	00 80 81 26 	lhi	r20,98304;	[0xc000000]
    9c4c:	dc 00 94 52 	ori	r20,r20,220;	[0xdc] 0xc0000dc <vector_exp_handler+0x30>
    9c50:	14 00 14 28 	lr32	r20,[r20,r0]
    9c54:	05 18 14 10 	beqi	r20,0,9c6c <do_entry6+0x620>
    9c58:	1e 00 00 14 	j	r0,9cd4 <do_entry6+0x688>
    9c5c:	00 80 81 26 	lhi	r20,98304;	[0xc000000]
    9c60:	e0 00 94 52 	ori	r20,r20,224;	[0xe0] 0xc0000e0 <vector_exp_handler+0x34>
    9c64:	14 00 14 28 	lr32	r20,[r20,r0]
    9c68:	1a 08 14 10 	bnei	r20,0,9cd4 <do_entry6+0x688>
    9c6c:	01 00 80 52 	ori	r20,r0,1;	[0x1]
    9c70:	00 80 61 26 	lhi	r19,98304;	[0xc000000]
    9c74:	3d 04 93 22 	sd32	r20,[r19,244]
    9c78:	14 00 1a 28 	lr32	r20,[r26,r0]
    9c7c:	08 00 94 52 	ori	r20,r20,8;	[0x8]
    9c80:	14 04 1a 28 	sr32	r20,[r26,r0]
    9c84:	01 00 9a 22 	ld32	r20,[r26,4]
    9c88:	04 00 94 02 	addi	r20,r20,4
    9c8c:	01 04 9a 22 	sd32	r20,[r26,4]
    9c90:	13 00 00 14 	j	r0,9ce0 <do_entry6+0x694>
    9c94:	00 80 81 26 	lhi	r20,98304;	[0xc000000]
    9c98:	e8 00 94 52 	ori	r20,r20,232;	[0xe8] 0xc0000e8 <vector_exp_handler+0x3c>
    9c9c:	0b 00 00 14 	j	r0,9ccc <do_entry6+0x680>
    9ca0:	00 80 81 26 	lhi	r20,98304;	[0xc000000]
    9ca4:	ec 00 94 52 	ori	r20,r20,236;	[0xec] 0xc0000ec <_end_sys_data>
    9ca8:	08 00 00 14 	j	r0,9ccc <do_entry6+0x680>
    9cac:	00 80 81 26 	lhi	r20,98304;	[0xc000000]
    9cb0:	f0 00 94 52 	ori	r20,r20,240;	[0xf0] 0xc0000f0 <chip96mode>
    9cb4:	05 00 00 14 	j	r0,9ccc <do_entry6+0x680>
    9cb8:	00 80 81 26 	lhi	r20,98304;	[0xc000000]
    9cbc:	f4 00 94 52 	ori	r20,r20,244;	[0xf4] 0xc0000f4 <pa_protect_flag>
    9cc0:	02 00 00 14 	j	r0,9ccc <do_entry6+0x680>
    9cc4:	00 80 81 26 	lhi	r20,98304;	[0xc000000]
    9cc8:	f8 00 94 52 	ori	r20,r20,248;	[0xf8] 0xc0000f8 <stringdesc>
    9ccc:	14 00 14 28 	lr32	r20,[r20,r0]
    9cd0:	02 18 14 10 	beqi	r20,0,9cdc <do_entry6+0x690>
    9cd4:	1b 08 14 08 	or	r27,r20,r0
    9cd8:	01 00 00 14 	j	r0,9ce0 <do_entry6+0x694>
    9cdc:	01 00 c0 52 	ori	r22,r0,1;	[0x1]
    9ce0:	04 18 16 10 	beqi	r22,0,9cf4 <do_entry6+0x6a8>
    9ce4:	02 10 40 64 	rcr	r2,EPC(2)
    9ce8:	12 00 80 26 	lhi	r20,18;	[0x9000]
    9cec:	f9 08 54 02 	ja	r18,r20,996;	[0x3e4] 0x93e4 <myprint_long>
    9cf0:	03 00 00 14 	j	r0,9d00 <do_entry6+0x6b4>
    9cf4:	02 18 1b 10 	beqi	r27,0,9d00 <do_entry6+0x6b4>
    9cf8:	02 08 1a 08 	or	r2,r26,r0
    9cfc:	00 08 5b 02 	ja	r18,r27,0;	[0x0]
    9d00:	02 08 00 08 	or	r2,r0,r0
    9d04:	12 00 01 28 	lr32	r18,[r1,r0]
    9d08:	01 00 c1 22 	ld32	r22,[r1,4]
    9d0c:	02 00 01 23 	ld32	r24,[r1,8]
    9d10:	03 00 21 23 	ld32	r25,[r1,12]
    9d14:	04 00 41 23 	ld32	r26,[r1,16]
    9d18:	05 00 61 23 	ld32	r27,[r1,20]
    9d1c:	18 00 21 00 	addi	r1,r1,24
    9d20:	00 08 12 00 	ja	r0,r18,0;	[0x0]

00009d24 <do_entry4>:
    9d24:	f0 03 21 00 	addi	r1,r1,-16
    9d28:	03 04 41 23 	sd32	r26,[r1,12]
    9d2c:	02 04 21 23 	sd32	r25,[r1,8]
    9d30:	01 04 01 23 	sd32	r24,[r1,4]
    9d34:	12 04 01 28 	sr32	r18,[r1,r0]
    9d38:	1a 08 02 08 	or	r26,r2,r0
    9d3c:	19 08 00 08 	or	r25,r0,r0
    9d40:	12 00 80 26 	lhi	r20,18;	[0x9000]
    9d44:	44 09 54 02 	ja	r18,r20,1296;	[0x510] 0x9510 <get_pending_int_source_one>
    9d48:	00 80 81 26 	lhi	r20,98304;	[0xc000000]
    9d4c:	09 00 94 22 	ld32	r20,[r20,36]
    9d50:	fd 03 94 02 	addi	r20,r20,-3
    9d54:	13 00 a0 26 	lhi	r21,19;	[0x9800]
    9d58:	6c 05 b5 52 	ori	r21,r21,1388;	[0x56c] 0x9d6c <do_entry4+0x48>
    9d5c:	78 20 94 13 	bgeui	r20,28,9f40 <do_entry4+0x21c>
    9d60:	14 68 95 2a 	lx16u	r20,[r21,r20]
    9d64:	14 00 b4 0a 	add	r20,r20,r21
    9d68:	00 08 14 00 	ja	r0,r20,0;	[0x0]
    9d6c:	50 01 70 01 	addi	r11,r16,336
    9d70:	d4 01 d4 01 	addi	r14,r20,468
    9d74:	30 01 ac 00 	addi	r5,r12,304
    9d78:	a0 00 7c 00 	addi	r3,r28,160
    9d7c:	d4 01 70 00 	addi	r3,r16,468
    9d80:	d4 01 d4 01 	addi	r14,r20,468
    9d84:	d4 01 d4 01 	addi	r14,r20,468
    9d88:	d4 01 94 00 	addi	r4,r20,468
    9d8c:	88 00 d4 01 	addi	r14,r20,136
    9d90:	d4 01 d4 01 	addi	r14,r20,468
    9d94:	64 00 58 00 	addi	r2,r24,100
    9d98:	f8 00 b8 00 	addi	r5,r24,248
    9d9c:	d8 00 24 01 	addi	r9,r4,216
    9da0:	18 01 38 00 	addi	r1,r24,280
    9da4:	7e 00 83 26 	lhi	r20,196734;	[0x1803f000]
    9da8:	14 00 94 52 	ori	r20,r20,20;	[0x14] 0x1803f014 <IPR+0x4>
    9dac:	15 08 14 28 	lr16	r21,[r20,r0]
    9db0:	01 00 b5 52 	ori	r21,r21,1;	[0x1]
    9db4:	15 0c 14 28 	sr16	r21,[r20,r0]
    9db8:	00 80 81 26 	lhi	r20,98304;	[0xc000000]
    9dbc:	a4 00 94 52 	ori	r20,r20,164;	[0xa4] 0xc0000a4 <vector_intc_handler+0x78>
    9dc0:	4d 00 00 14 	j	r0,9ef8 <do_entry4+0x1d4>
    9dc4:	00 80 81 26 	lhi	r20,98304;	[0xc000000]
    9dc8:	8c 00 94 52 	ori	r20,r20,140;	[0x8c] 0xc00008c <vector_intc_handler+0x60>
    9dcc:	4a 00 00 14 	j	r0,9ef8 <do_entry4+0x1d4>
    9dd0:	00 80 81 26 	lhi	r20,98304;	[0xc000000]
    9dd4:	88 00 94 52 	ori	r20,r20,136;	[0x88] 0xc000088 <vector_intc_handler+0x5c>
    9dd8:	47 00 00 14 	j	r0,9ef8 <do_entry4+0x1d4>
    9ddc:	00 80 81 26 	lhi	r20,98304;	[0xc000000]
    9de0:	5c 00 94 52 	ori	r20,r20,92;	[0x5c] 0xc00005c <vector_intc_handler+0x30>
    9de4:	44 00 00 14 	j	r0,9ef8 <do_entry4+0x1d4>
    9de8:	00 80 81 26 	lhi	r20,98304;	[0xc000000]
    9dec:	54 00 94 52 	ori	r20,r20,84;	[0x54] 0xc000054 <vector_intc_handler+0x28>
    9df0:	41 00 00 14 	j	r0,9ef8 <do_entry4+0x1d4>
    9df4:	00 80 81 26 	lhi	r20,98304;	[0xc000000]
    9df8:	78 00 94 52 	ori	r20,r20,120;	[0x78] 0xc000078 <vector_intc_handler+0x4c>
    9dfc:	3e 00 00 14 	j	r0,9ef8 <do_entry4+0x1d4>
    9e00:	00 80 81 26 	lhi	r20,98304;	[0xc000000]
    9e04:	74 00 94 52 	ori	r20,r20,116;	[0x74] 0xc000074 <vector_intc_handler+0x48>
    9e08:	3b 00 00 14 	j	r0,9ef8 <do_entry4+0x1d4>
    9e0c:	00 80 81 26 	lhi	r20,98304;	[0xc000000]
    9e10:	50 00 94 52 	ori	r20,r20,80;	[0x50] 0xc000050 <vector_intc_handler+0x24>
    9e14:	38 00 00 14 	j	r0,9ef8 <do_entry4+0x1d4>
    9e18:	00 80 81 26 	lhi	r20,98304;	[0xc000000]
    9e1c:	4c 00 94 52 	ori	r20,r20,76;	[0x4c] 0xc00004c <vector_intc_handler+0x20>
    9e20:	35 00 00 14 	j	r0,9ef8 <do_entry4+0x1d4>
    9e24:	7e 00 83 26 	lhi	r20,196734;	[0x1803f000]
    9e28:	14 00 94 52 	ori	r20,r20,20;	[0x14] 0x1803f014 <IPR+0x4>
    9e2c:	15 08 14 28 	lr16	r21,[r20,r0]
    9e30:	04 00 b5 52 	ori	r21,r21,4;	[0x4]
    9e34:	15 0c 14 28 	sr16	r21,[r20,r0]
    9e38:	00 80 81 26 	lhi	r20,98304;	[0xc000000]
    9e3c:	94 00 94 52 	ori	r20,r20,148;	[0x94] 0xc000094 <vector_intc_handler+0x68>
    9e40:	2d 00 00 14 	j	r0,9ef8 <do_entry4+0x1d4>
    9e44:	7e 00 83 26 	lhi	r20,196734;	[0x1803f000]
    9e48:	14 00 94 52 	ori	r20,r20,20;	[0x14] 0x1803f014 <IPR+0x4>
    9e4c:	15 08 14 28 	lr16	r21,[r20,r0]
    9e50:	02 00 b5 52 	ori	r21,r21,2;	[0x2]
    9e54:	15 0c 14 28 	sr16	r21,[r20,r0]
    9e58:	00 80 81 26 	lhi	r20,98304;	[0xc000000]
    9e5c:	98 00 94 52 	ori	r20,r20,152;	[0x98] 0xc000098 <vector_intc_handler+0x6c>
    9e60:	25 00 00 14 	j	r0,9ef8 <do_entry4+0x1d4>
    9e64:	7e 00 83 26 	lhi	r20,196734;	[0x1803f000]
    9e68:	14 00 94 52 	ori	r20,r20,20;	[0x14] 0x1803f014 <IPR+0x4>
    9e6c:	15 08 14 28 	lr16	r21,[r20,r0]
    9e70:	08 00 b5 52 	ori	r21,r21,8;	[0x8]
    9e74:	15 0c 14 28 	sr16	r21,[r20,r0]
    9e78:	00 80 81 26 	lhi	r20,98304;	[0xc000000]
    9e7c:	90 00 94 52 	ori	r20,r20,144;	[0x90] 0xc000090 <vector_intc_handler+0x64>
    9e80:	1d 00 00 14 	j	r0,9ef8 <do_entry4+0x1d4>
    9e84:	00 80 81 26 	lhi	r20,98304;	[0xc000000]
    9e88:	a0 00 94 52 	ori	r20,r20,160;	[0xa0] 0xc0000a0 <vector_intc_handler+0x74>
    9e8c:	1a 00 00 14 	j	r0,9ef8 <do_entry4+0x1d4>
    9e90:	00 80 81 26 	lhi	r20,98304;	[0xc000000]
    9e94:	9c 00 94 52 	ori	r20,r20,156;	[0x9c] 0xc00009c <vector_intc_handler+0x70>
    9e98:	17 00 00 14 	j	r0,9ef8 <do_entry4+0x1d4>
    9e9c:	7e 00 83 26 	lhi	r20,196734;	[0x1803f000]
    9ea0:	14 00 94 52 	ori	r20,r20,20;	[0x14] 0x1803f014 <IPR+0x4>
    9ea4:	15 08 14 28 	lr16	r21,[r20,r0]
    9ea8:	10 00 b5 52 	ori	r21,r21,16;	[0x10]
    9eac:	15 0c 14 28 	sr16	r21,[r20,r0]
    9eb0:	00 80 81 26 	lhi	r20,98304;	[0xc000000]
    9eb4:	48 00 94 52 	ori	r20,r20,72;	[0x48] 0xc000048 <vector_intc_handler+0x1c>
    9eb8:	0f 00 00 14 	j	r0,9ef8 <do_entry4+0x1d4>
    9ebc:	7e 00 83 26 	lhi	r20,196734;	[0x1803f000]
    9ec0:	14 00 94 52 	ori	r20,r20,20;	[0x14] 0x1803f014 <IPR+0x4>
    9ec4:	15 08 14 28 	lr16	r21,[r20,r0]
    9ec8:	40 00 b5 52 	ori	r21,r21,64;	[0x40]
    9ecc:	15 0c 14 28 	sr16	r21,[r20,r0]
    9ed0:	00 80 81 26 	lhi	r20,98304;	[0xc000000]
    9ed4:	38 00 94 52 	ori	r20,r20,56;	[0x38] 0xc000038 <vector_intc_handler+0xc>
    9ed8:	07 00 00 14 	j	r0,9ef8 <do_entry4+0x1d4>
    9edc:	7e 00 83 26 	lhi	r20,196734;	[0x1803f000]
    9ee0:	14 00 94 52 	ori	r20,r20,20;	[0x14] 0x1803f014 <IPR+0x4>
    9ee4:	15 08 14 28 	lr16	r21,[r20,r0]
    9ee8:	20 00 b5 52 	ori	r21,r21,32;	[0x20]
    9eec:	15 0c 14 28 	sr16	r21,[r20,r0]
    9ef0:	00 80 81 26 	lhi	r20,98304;	[0xc000000]
    9ef4:	3c 00 94 52 	ori	r20,r20,60;	[0x3c] 0xc00003c <vector_intc_handler+0x10>
    9ef8:	14 00 14 28 	lr32	r20,[r20,r0]
    9efc:	02 18 14 10 	beqi	r20,0,9f08 <do_entry4+0x1e4>
    9f00:	18 08 14 08 	or	r24,r20,r0
    9f04:	01 00 00 14 	j	r0,9f0c <do_entry4+0x1e8>
    9f08:	01 00 20 53 	ori	r25,r0,1;	[0x1]
    9f0c:	08 18 19 10 	beqi	r25,0,9f30 <do_entry4+0x20c>
    9f10:	00 80 41 24 	lhi	r2,98304;	[0xc000000]
    9f14:	09 00 42 20 	ld32	r2,[r2,36]
    9f18:	12 00 80 26 	lhi	r20,18;	[0x9000]
    9f1c:	f9 08 54 02 	ja	r18,r20,996;	[0x3e4] 0x93e4 <myprint_long>
    9f20:	02 10 40 64 	rcr	r2,EPC(2)
    9f24:	12 00 80 26 	lhi	r20,18;	[0x9000]
    9f28:	f9 08 54 02 	ja	r18,r20,996;	[0x3e4] 0x93e4 <myprint_long>
    9f2c:	02 00 00 14 	j	r0,9f38 <do_entry4+0x214>
    9f30:	02 08 1a 08 	or	r2,r26,r0
    9f34:	00 08 58 02 	ja	r18,r24,0;	[0x0]
    9f38:	12 00 80 26 	lhi	r20,18;	[0x9000]
    9f3c:	3c 09 54 02 	ja	r18,r20,1264;	[0x4f0] 0x94f0 <clear_ipr_highest>
    9f40:	02 08 00 08 	or	r2,r0,r0
    9f44:	12 00 01 28 	lr32	r18,[r1,r0]
    9f48:	01 00 01 23 	ld32	r24,[r1,4]
    9f4c:	02 00 21 23 	ld32	r25,[r1,8]
    9f50:	03 00 41 23 	ld32	r26,[r1,12]
    9f54:	10 00 21 00 	addi	r1,r1,16
    9f58:	00 08 12 00 	ja	r0,r18,0;	[0x0]

00009f5c <do_entry7>:
    9f5c:	fc 03 21 00 	addi	r1,r1,-4
    9f60:	12 04 01 28 	sr32	r18,[r1,r0]
    9f64:	02 10 40 64 	rcr	r2,EPC(2)
    9f68:	12 00 80 26 	lhi	r20,18;	[0x9000]
    9f6c:	f9 08 54 02 	ja	r18,r20,996;	[0x3e4] 0x93e4 <myprint_long>
    9f70:	12 00 01 28 	lr32	r18,[r1,r0]
    9f74:	04 00 21 00 	addi	r1,r1,4
    9f78:	00 08 12 00 	ja	r0,r18,0;	[0x0]

00009f7c <WriteEeprom>:
    9f7c:	cc 03 21 00 	addi	r1,r1,-52
    9f80:	0c 04 61 23 	sd32	r27,[r1,48]
    9f84:	0b 04 41 23 	sd32	r26,[r1,44]
    9f88:	0a 04 21 23 	sd32	r25,[r1,40]
    9f8c:	09 04 01 23 	sd32	r24,[r1,36]
    9f90:	08 04 e1 22 	sd32	r23,[r1,32]
    9f94:	07 04 c1 22 	sd32	r22,[r1,28]
    9f98:	06 04 61 21 	sd32	r11,[r1,24]
    9f9c:	05 04 41 21 	sd32	r10,[r1,20]
    9fa0:	04 04 21 21 	sd32	r9,[r1,16]
    9fa4:	03 04 01 21 	sd32	r8,[r1,12]
    9fa8:	02 04 41 22 	sd32	r18,[r1,8]
    9fac:	08 08 02 08 	or	r8,r2,r0
    9fb0:	17 08 03 08 	or	r23,r3,r0
    9fb4:	1b 08 04 08 	or	r27,r4,r0
    9fb8:	00 00 41 27 	lhi	r26,65536;	[0x8000000]
    9fbc:	0b 08 00 08 	or	r11,r0,r0
    9fc0:	ff 7f f7 32 	andi	r23,r23,32767
    9fc4:	03 00 d7 32 	andi	r22,r23,3
    9fc8:	1a 00 57 0b 	add	r26,r23,r26
    9fcc:	18 08 08 08 	or	r24,r8,r0
    9fd0:	15 00 7a 0b 	add	r21,r26,r27
    9fd4:	10 00 81 26 	lhi	r20,65552;	[0x8008000]
    9fd8:	02 20 b4 1a 	bgeu	r20,r21,9fe4 <WriteEeprom+0x68>
    9fdc:	02 08 00 08 	or	r2,r0,r0
    9fe0:	6d 00 00 14 	j	r0,a198 <WriteEeprom+0x21c>
    9fe4:	01 00 a0 52 	ori	r21,r0,1;	[0x1]
    9fe8:	22 00 83 26 	lhi	r20,196642;	[0x18011000]
    9fec:	40 01 94 52 	ori	r20,r20,320;	[0x140] 0x18011140 <_stack+0xc00f144>
    9ff0:	15 04 14 28 	sr32	r21,[r20,r0]
    9ff4:	06 08 14 08 	or	r6,r20,r0
    9ff8:	00 00 b0 26 	lhi	r21,1048576;	[0x80000000]
    9ffc:	14 00 06 28 	lr32	r20,[r6,r0]
    a000:	14 04 b4 0a 	and	r20,r20,r21
    a004:	fd 0b 14 10 	bnei	r20,0,9ffc <WriteEeprom+0x80>
    a008:	04 08 00 08 	or	r4,r0,r0
    a00c:	19 18 16 10 	beqi	r22,0,a074 <WriteEeprom+0xf8>
    a010:	fc ff 3a 31 	andi	r9,r26,-4
    a014:	14 00 09 28 	lr32	r20,[r9,r0]
    a018:	14 04 01 28 	sr32	r20,[r1,r0]
    a01c:	14 00 76 0b 	add	r20,r22,r27
    a020:	09 30 b4 10 	bltui	r20,5,a048 <WriteEeprom+0xcc>
    a024:	02 00 36 08 	add	r2,r22,r1
    a028:	04 00 80 50 	ori	r4,r0,4;	[0x4]
    a02c:	04 80 c4 0a 	sub	r4,r4,r22
    a030:	03 08 08 08 	or	r3,r8,r0
    a034:	16 00 80 26 	lhi	r20,22;	[0xb000]
    a038:	71 09 54 02 	ja	r18,r20,1476;	[0x5c4] 0xb5c4 <memcpy>
    a03c:	04 80 c0 0a 	sub	r4,r0,r22
    a040:	04 00 84 00 	addi	r4,r4,4
    a044:	06 00 00 14 	j	r0,a060 <WriteEeprom+0xe4>
    a048:	02 00 36 08 	add	r2,r22,r1
    a04c:	03 08 08 08 	or	r3,r8,r0
    a050:	04 08 1b 08 	or	r4,r27,r0
    a054:	16 00 80 26 	lhi	r20,22;	[0xb000]
    a058:	71 09 54 02 	ja	r18,r20,1476;	[0x5c4] 0xb5c4 <memcpy>
    a05c:	04 08 1b 08 	or	r4,r27,r0
    a060:	14 00 01 28 	lr32	r20,[r1,r0]
    a064:	14 04 09 28 	sr32	r20,[r9,r0]
    a068:	18 80 d8 0a 	sub	r24,r24,r22
    a06c:	04 00 18 03 	addi	r24,r24,4
    a070:	04 00 49 03 	addi	r26,r9,4
    a074:	22 00 c3 24 	lhi	r6,196642;	[0x18011000]
    a078:	40 01 c6 50 	ori	r6,r6,320;	[0x140] 0x18011140 <_stack+0xc00f144>
    a07c:	00 00 b0 26 	lhi	r21,1048576;	[0x80000000]
    a080:	14 00 06 28 	lr32	r20,[r6,r0]
    a084:	14 04 b4 0a 	and	r20,r20,r21
    a088:	fd 0b 14 10 	bnei	r20,0,a080 <WriteEeprom+0x104>
    a08c:	19 80 9b 08 	sub	r25,r27,r4
    a090:	27 10 39 10 	blti	r25,1,a130 <WriteEeprom+0x1b4>
    a094:	11 10 99 10 	blti	r25,4,a0dc <WriteEeprom+0x160>
    a098:	15 38 18 28 	lr8u	r21,[r24,r0]
    a09c:	01 00 81 22 	ld32	r20,[r1,4]
    a0a0:	00 ff 94 32 	andi	r20,r20,-256
    a0a4:	01 04 81 22 	sd32	r20,[r1,4]
    a0a8:	14 08 b4 0a 	or	r20,r20,r21
    a0ac:	01 04 81 22 	sd32	r20,[r1,4]
    a0b0:	04 00 a1 02 	addi	r21,r1,4
    a0b4:	01 18 98 22 	ld8	r20,[r24,1]
    a0b8:	01 1c 95 22 	sd8	r20,[r21,1]
    a0bc:	02 18 98 22 	ld8	r20,[r24,2]
    a0c0:	02 1c 95 22 	sd8	r20,[r21,2]
    a0c4:	03 18 98 22 	ld8	r20,[r24,3]
    a0c8:	03 1c 95 22 	sd8	r20,[r21,3]
    a0cc:	04 00 18 03 	addi	r24,r24,4
    a0d0:	01 00 81 22 	ld32	r20,[r1,4]
    a0d4:	14 04 1a 28 	sr32	r20,[r26,r0]
    a0d8:	0c 00 00 14 	j	r0,a10c <WriteEeprom+0x190>
    a0dc:	14 00 1a 28 	lr32	r20,[r26,r0]
    a0e0:	01 04 81 22 	sd32	r20,[r1,4]
    a0e4:	04 00 41 00 	addi	r2,r1,4
    a0e8:	03 08 18 08 	or	r3,r24,r0
    a0ec:	04 08 19 08 	or	r4,r25,r0
    a0f0:	16 00 80 26 	lhi	r20,22;	[0xb000]
    a0f4:	71 09 54 02 	ja	r18,r20,1476;	[0x5c4] 0xb5c4 <memcpy>
    a0f8:	18 00 38 0b 	add	r24,r24,r25
    a0fc:	01 00 81 22 	ld32	r20,[r1,4]
    a100:	14 04 1a 28 	sr32	r20,[r26,r0]
    a104:	0a 08 1a 08 	or	r10,r26,r0
    a108:	01 00 60 51 	ori	r11,r0,1;	[0x1]
    a10c:	fc 03 39 03 	addi	r25,r25,-4
    a110:	22 00 c3 24 	lhi	r6,196642;	[0x18011000]
    a114:	40 01 c6 50 	ori	r6,r6,320;	[0x140] 0x18011140 <_stack+0xc00f144>
    a118:	00 00 b0 26 	lhi	r21,1048576;	[0x80000000]
    a11c:	14 00 06 28 	lr32	r20,[r6,r0]
    a120:	14 04 b4 0a 	and	r20,r20,r21
    a124:	fd 0b 14 10 	bnei	r20,0,a11c <WriteEeprom+0x1a0>
    a128:	04 00 5a 03 	addi	r26,r26,4
    a12c:	d9 03 39 10 	bgei	r25,1,a094 <WriteEeprom+0x118>
    a130:	22 00 83 26 	lhi	r20,196642;	[0x18011000]
    a134:	40 01 94 52 	ori	r20,r20,320;	[0x140] 0x18011140 <_stack+0xc00f144>
    a138:	00 04 14 28 	sr32	r0,[r20,r0]
    a13c:	00 00 81 26 	lhi	r20,65536;	[0x8000000]
    a140:	1a 00 97 0a 	add	r26,r23,r20
    a144:	07 08 00 08 	or	r7,r0,r0
    a148:	05 08 00 08 	or	r5,r0,r0
    a14c:	03 00 01 28 	lr32	r3,[r1,r0]
    a150:	01 00 81 20 	ld32	r4,[r1,4]
    a154:	00 04 e5 01 	dcache	Invalidate(15),r5,0
    a158:	02 18 16 10 	beqi	r22,0,a164 <WriteEeprom+0x1e8>
    a15c:	14 00 09 28 	lr32	r20,[r9,r0]
    a160:	9e 0b 74 18 	bne	r20,r3,9fdc <WriteEeprom+0x60>
    a164:	02 08 2b 10 	bnei	r11,1,a170 <WriteEeprom+0x1f4>
    a168:	14 00 0a 28 	lr32	r20,[r10,r0]
    a16c:	9b 0b 94 18 	bne	r20,r4,9fdc <WriteEeprom+0x60>
    a170:	06 08 00 08 	or	r6,r0,r0
    a174:	05 00 66 1b 	bge	r6,r27,a18c <WriteEeprom+0x210>
    a178:	15 18 da 28 	lr8	r21,[r26,r6]
    a17c:	14 18 c8 28 	lr8	r20,[r8,r6]
    a180:	96 0b 95 1a 	bne	r21,r20,9fdc <WriteEeprom+0x60>
    a184:	01 00 c6 00 	addi	r6,r6,1
    a188:	fb 13 66 1b 	blt	r6,r27,a178 <WriteEeprom+0x1fc>
    a18c:	01 00 e7 00 	addi	r7,r7,1
    a190:	f0 13 67 10 	blti	r7,3,a154 <WriteEeprom+0x1d8>
    a194:	01 00 40 50 	ori	r2,r0,1;	[0x1]
    a198:	02 00 41 22 	ld32	r18,[r1,8]
    a19c:	03 00 01 21 	ld32	r8,[r1,12]
    a1a0:	04 00 21 21 	ld32	r9,[r1,16]
    a1a4:	05 00 41 21 	ld32	r10,[r1,20]
    a1a8:	06 00 61 21 	ld32	r11,[r1,24]
    a1ac:	07 00 c1 22 	ld32	r22,[r1,28]
    a1b0:	08 00 e1 22 	ld32	r23,[r1,32]
    a1b4:	09 00 01 23 	ld32	r24,[r1,36]
    a1b8:	0a 00 21 23 	ld32	r25,[r1,40]
    a1bc:	0b 00 41 23 	ld32	r26,[r1,44]
    a1c0:	0c 00 61 23 	ld32	r27,[r1,48]
    a1c4:	34 00 21 00 	addi	r1,r1,52
    a1c8:	00 08 12 00 	ja	r0,r18,0;	[0x0]

0000a1cc <EepromAutoWrite>:
    a1cc:	ec 03 21 00 	addi	r1,r1,-20
    a1d0:	04 04 61 23 	sd32	r27,[r1,16]
    a1d4:	03 04 41 23 	sd32	r26,[r1,12]
    a1d8:	02 04 21 23 	sd32	r25,[r1,8]
    a1dc:	01 04 01 23 	sd32	r24,[r1,4]
    a1e0:	1b 08 02 08 	or	r27,r2,r0
    a1e4:	1a 08 03 08 	or	r26,r3,r0
    a1e8:	19 08 04 08 	or	r25,r4,r0
    a1ec:	00 00 61 24 	lhi	r3,65536;	[0x8000000]
    a1f0:	ff 7f 5a 33 	andi	r26,r26,32767
    a1f4:	03 00 fa 30 	andi	r7,r26,3
    a1f8:	03 00 7a 08 	add	r3,r26,r3
    a1fc:	05 08 1b 08 	or	r5,r27,r0
    a200:	15 00 23 0b 	add	r21,r3,r25
    a204:	10 00 81 26 	lhi	r20,65552;	[0x8008000]
    a208:	90 30 b4 1a 	bltu	r20,r21,a44c <EepromAutoWrite+0x280>
    a20c:	22 00 c3 24 	lhi	r6,196642;	[0x18011000]
    a210:	40 01 c6 50 	ori	r6,r6,320;	[0x140] 0x18011140 <_stack+0xc00f144>
    a214:	00 00 b0 26 	lhi	r21,1048576;	[0x80000000]
    a218:	14 00 06 28 	lr32	r20,[r6,r0]
    a21c:	14 04 b4 0a 	and	r20,r20,r21
    a220:	fd 0b 14 10 	bnei	r20,0,a218 <EepromAutoWrite+0x4c>
    a224:	25 18 07 10 	beqi	r7,0,a2bc <EepromAutoWrite+0xf0>
    a228:	22 00 a3 26 	lhi	r21,196642;	[0x18011000]
    a22c:	40 01 b5 52 	ori	r21,r21,320;	[0x140] 0x18011140 <_stack+0xc00f144>
    a230:	14 00 15 28 	lr32	r20,[r21,r0]
    a234:	01 00 94 52 	ori	r20,r20,1;	[0x1]
    a238:	14 04 15 28 	sr32	r20,[r21,r0]
    a23c:	04 00 80 52 	ori	r20,r0,4;	[0x4]
    a240:	07 80 f4 08 	sub	r7,r20,r7
    a244:	14 60 f9 08 	sgeu	r20,r25,r7
    a248:	07 24 34 0b 	mvz	r7,r20,r25
    a24c:	00 04 01 28 	sr32	r0,[r1,r0]
    a250:	14 08 00 08 	or	r20,r0,r0
    a254:	15 08 14 08 	or	r21,r20,r0
    a258:	0e 00 f4 18 	bge	r20,r7,a294 <EepromAutoWrite+0xc8>
    a25c:	22 00 83 24 	lhi	r4,196642;	[0x18011000]
    a260:	40 01 84 50 	ori	r4,r4,320;	[0x140] 0x18011140 <_stack+0xc00f144>
    a264:	00 00 d0 24 	lhi	r6,1048576;	[0x80000000]
    a268:	14 18 05 28 	lr8	r20,[r5,r0]
    a26c:	14 1c a3 2a 	sr8	r20,[r3,r21]
    a270:	01 00 a5 00 	addi	r5,r5,1
    a274:	14 00 04 28 	lr32	r20,[r4,r0]
    a278:	14 04 d4 08 	and	r20,r20,r6
    a27c:	fd 0b 14 10 	bnei	r20,0,a274 <EepromAutoWrite+0xa8>
    a280:	14 00 01 28 	lr32	r20,[r1,r0]
    a284:	01 00 94 02 	addi	r20,r20,1
    a288:	14 04 01 28 	sr32	r20,[r1,r0]
    a28c:	15 08 14 08 	or	r21,r20,r0
    a290:	f5 13 f5 18 	blt	r21,r7,a268 <EepromAutoWrite+0x9c>
    a294:	22 00 a3 26 	lhi	r21,196642;	[0x18011000]
    a298:	40 01 b5 52 	ori	r21,r21,320;	[0x140] 0x18011140 <_stack+0xc00f144>
    a29c:	14 00 15 28 	lr32	r20,[r21,r0]
    a2a0:	fc 00 94 32 	andi	r20,r20,252
    a2a4:	14 04 15 28 	sr32	r20,[r21,r0]
    a2a8:	03 00 e3 08 	add	r3,r3,r7
    a2ac:	07 80 f9 08 	sub	r7,r25,r7
    a2b0:	03 00 00 14 	j	r0,a2c0 <EepromAutoWrite+0xf4>
    a2b4:	01 00 40 50 	ori	r2,r0,1;	[0x1]
    a2b8:	65 00 00 14 	j	r0,a450 <EepromAutoWrite+0x284>
    a2bc:	07 08 19 08 	or	r7,r25,r0
    a2c0:	c0 ff 43 30 	andi	r2,r3,-64
    a2c4:	22 00 a3 26 	lhi	r21,196642;	[0x18011000]
    a2c8:	40 01 b5 52 	ori	r21,r21,320;	[0x140] 0x18011140 <_stack+0xc00f144>
    a2cc:	14 00 15 28 	lr32	r20,[r21,r0]
    a2d0:	03 00 94 52 	ori	r20,r20,3;	[0x3]
    a2d4:	14 04 15 28 	sr32	r20,[r21,r0]
    a2d8:	23 10 87 10 	blti	r7,4,a368 <EepromAutoWrite+0x19c>
    a2dc:	18 08 01 08 	or	r24,r1,r0
    a2e0:	04 08 15 08 	or	r4,r21,r0
    a2e4:	15 38 05 28 	lr8u	r21,[r5,r0]
    a2e8:	14 00 01 28 	lr32	r20,[r1,r0]
    a2ec:	00 ff 94 32 	andi	r20,r20,-256
    a2f0:	14 04 01 28 	sr32	r20,[r1,r0]
    a2f4:	14 08 b4 0a 	or	r20,r20,r21
    a2f8:	14 04 01 28 	sr32	r20,[r1,r0]
    a2fc:	01 18 85 22 	ld8	r20,[r5,1]
    a300:	01 1c 98 22 	sd8	r20,[r24,1]
    a304:	02 18 85 22 	ld8	r20,[r5,2]
    a308:	02 1c 98 22 	sd8	r20,[r24,2]
    a30c:	03 18 85 22 	ld8	r20,[r5,3]
    a310:	03 1c 98 22 	sd8	r20,[r24,3]
    a314:	14 00 01 28 	lr32	r20,[r1,r0]
    a318:	14 04 03 28 	sr32	r20,[r3,r0]
    a31c:	04 00 63 00 	addi	r3,r3,4
    a320:	fc 03 e7 00 	addi	r7,r7,-4
    a324:	04 00 a5 00 	addi	r5,r5,4
    a328:	c0 ff 83 32 	andi	r20,r3,-64
    a32c:	0d 18 54 18 	beq	r20,r2,a364 <EepromAutoWrite+0x198>
    a330:	02 08 14 08 	or	r2,r20,r0
    a334:	14 00 04 28 	lr32	r20,[r4,r0]
    a338:	fc 00 94 32 	andi	r20,r20,252
    a33c:	14 04 04 28 	sr32	r20,[r4,r0]
    a340:	22 00 c3 24 	lhi	r6,196642;	[0x18011000]
    a344:	40 01 c6 50 	ori	r6,r6,320;	[0x140] 0x18011140 <_stack+0xc00f144>
    a348:	00 00 b0 26 	lhi	r21,1048576;	[0x80000000]
    a34c:	14 00 06 28 	lr32	r20,[r6,r0]
    a350:	14 04 b4 0a 	and	r20,r20,r21
    a354:	fd 0b 14 10 	bnei	r20,0,a34c <EepromAutoWrite+0x180>
    a358:	14 00 04 28 	lr32	r20,[r4,r0]
    a35c:	03 00 94 52 	ori	r20,r20,3;	[0x3]
    a360:	14 04 04 28 	sr32	r20,[r4,r0]
    a364:	df 03 87 10 	bgei	r7,4,a2e4 <EepromAutoWrite+0x118>
    a368:	22 00 a3 26 	lhi	r21,196642;	[0x18011000]
    a36c:	40 01 b5 52 	ori	r21,r21,320;	[0x140] 0x18011140 <_stack+0xc00f144>
    a370:	14 00 15 28 	lr32	r20,[r21,r0]
    a374:	fc 00 94 32 	andi	r20,r20,252
    a378:	14 04 15 28 	sr32	r20,[r21,r0]
    a37c:	06 08 15 08 	or	r6,r21,r0
    a380:	00 00 b0 26 	lhi	r21,1048576;	[0x80000000]
    a384:	14 00 06 28 	lr32	r20,[r6,r0]
    a388:	14 04 b4 0a 	and	r20,r20,r21
    a38c:	fd 0b 14 10 	bnei	r20,0,a384 <EepromAutoWrite+0x1b8>
    a390:	1c 10 27 10 	blti	r7,1,a404 <EepromAutoWrite+0x238>
    a394:	22 00 83 26 	lhi	r20,196642;	[0x18011000]
    a398:	40 01 94 52 	ori	r20,r20,320;	[0x140] 0x18011140 <_stack+0xc00f144>
    a39c:	15 00 14 28 	lr32	r21,[r20,r0]
    a3a0:	01 00 b5 52 	ori	r21,r21,1;	[0x1]
    a3a4:	15 04 14 28 	sr32	r21,[r20,r0]
    a3a8:	00 04 01 28 	sr32	r0,[r1,r0]
    a3ac:	14 08 00 08 	or	r20,r0,r0
    a3b0:	15 08 14 08 	or	r21,r20,r0
    a3b4:	0e 00 f4 18 	bge	r20,r7,a3f0 <EepromAutoWrite+0x224>
    a3b8:	22 00 83 24 	lhi	r4,196642;	[0x18011000]
    a3bc:	40 01 84 50 	ori	r4,r4,320;	[0x140] 0x18011140 <_stack+0xc00f144>
    a3c0:	00 00 d0 24 	lhi	r6,1048576;	[0x80000000]
    a3c4:	14 18 05 28 	lr8	r20,[r5,r0]
    a3c8:	14 1c a3 2a 	sr8	r20,[r3,r21]
    a3cc:	01 00 a5 00 	addi	r5,r5,1
    a3d0:	14 00 04 28 	lr32	r20,[r4,r0]
    a3d4:	14 04 d4 08 	and	r20,r20,r6
    a3d8:	fd 0b 14 10 	bnei	r20,0,a3d0 <EepromAutoWrite+0x204>
    a3dc:	14 00 01 28 	lr32	r20,[r1,r0]
    a3e0:	01 00 94 02 	addi	r20,r20,1
    a3e4:	14 04 01 28 	sr32	r20,[r1,r0]
    a3e8:	15 08 14 08 	or	r21,r20,r0
    a3ec:	f5 13 f5 18 	blt	r21,r7,a3c4 <EepromAutoWrite+0x1f8>
    a3f0:	22 00 a3 26 	lhi	r21,196642;	[0x18011000]
    a3f4:	40 01 b5 52 	ori	r21,r21,320;	[0x140] 0x18011140 <_stack+0xc00f144>
    a3f8:	14 00 15 28 	lr32	r20,[r21,r0]
    a3fc:	fc 00 94 32 	andi	r20,r20,252
    a400:	14 04 15 28 	sr32	r20,[r21,r0]
    a404:	14 08 00 08 	or	r20,r0,r0
    a408:	00 04 f4 01 	dcache	Invalidate(15),r20,0
    a40c:	00 00 81 26 	lhi	r20,65536;	[0x8000000]
    a410:	03 00 9a 0a 	add	r3,r26,r20
    a414:	00 04 01 28 	sr32	r0,[r1,r0]
    a418:	14 08 00 08 	or	r20,r0,r0
    a41c:	15 08 14 08 	or	r21,r20,r0
    a420:	0a 20 34 1b 	bgeu	r20,r25,a44c <EepromAutoWrite+0x280>
    a424:	14 08 15 08 	or	r20,r21,r0
    a428:	15 18 83 2a 	lr8	r21,[r3,r20]
    a42c:	ff 00 b5 32 	andi	r21,r21,255
    a430:	14 38 9b 2a 	lr8u	r20,[r27,r20]
    a434:	9f 0b 95 1a 	bne	r21,r20,a2b4 <EepromAutoWrite+0xe8>
    a438:	14 00 01 28 	lr32	r20,[r1,r0]
    a43c:	01 00 94 02 	addi	r20,r20,1
    a440:	14 04 01 28 	sr32	r20,[r1,r0]
    a444:	15 08 14 08 	or	r21,r20,r0
    a448:	f6 33 35 1b 	bltu	r21,r25,a424 <EepromAutoWrite+0x258>
    a44c:	02 08 00 08 	or	r2,r0,r0
    a450:	01 00 01 23 	ld32	r24,[r1,4]
    a454:	02 00 21 23 	ld32	r25,[r1,8]
    a458:	03 00 41 23 	ld32	r26,[r1,12]
    a45c:	04 00 61 23 	ld32	r27,[r1,16]
    a460:	14 00 21 00 	addi	r1,r1,20
    a464:	00 08 12 00 	ja	r0,r18,0;	[0x0]

0000a468 <FillEeprom>:
    a468:	a8 03 21 00 	addi	r1,r1,-88
    a46c:	15 04 61 23 	sd32	r27,[r1,84]
    a470:	14 04 41 23 	sd32	r26,[r1,80]
    a474:	13 04 21 23 	sd32	r25,[r1,76]
    a478:	12 04 01 23 	sd32	r24,[r1,72]
    a47c:	11 04 c1 22 	sd32	r22,[r1,68]
    a480:	10 04 41 22 	sd32	r18,[r1,64]
    a484:	14 08 02 08 	or	r20,r2,r0
    a488:	19 08 03 08 	or	r25,r3,r0
    a48c:	1a 08 04 08 	or	r26,r4,r0
    a490:	ff 00 94 32 	andi	r20,r20,255
    a494:	02 08 01 08 	or	r2,r1,r0
    a498:	03 08 14 08 	or	r3,r20,r0
    a49c:	40 00 80 50 	ori	r4,r0,64;	[0x40]
    a4a0:	16 00 80 26 	lhi	r20,22;	[0xb000]
    a4a4:	5e 09 54 02 	ja	r18,r20,1400;	[0x578] 0xb578 <memset>
    a4a8:	3f 00 ba 32 	andi	r21,r26,63
    a4ac:	14 70 35 0b 	sltu	r20,r21,r25
    a4b0:	18 08 19 08 	or	r24,r25,r0
    a4b4:	18 34 b4 0a 	mvnz	r24,r20,r21
    a4b8:	02 08 01 08 	or	r2,r1,r0
    a4bc:	03 08 1a 08 	or	r3,r26,r0
    a4c0:	04 08 18 08 	or	r4,r24,r0
    a4c4:	14 00 80 26 	lhi	r20,20;	[0xa000]
    a4c8:	73 08 54 02 	ja	r18,r20,460;	[0x1cc] 0xa1cc <EepromAutoWrite>
    a4cc:	02 18 02 10 	beqi	r2,0,a4d8 <FillEeprom+0x70>
    a4d0:	01 00 40 50 	ori	r2,r0,1;	[0x1]
    a4d4:	12 00 00 14 	j	r0,a520 <FillEeprom+0xb8>
    a4d8:	19 80 19 0b 	sub	r25,r25,r24
    a4dc:	1a 00 1a 0b 	add	r26,r26,r24
    a4e0:	0e 18 19 10 	beqi	r25,0,a51c <FillEeprom+0xb4>
    a4e4:	3f 00 c0 52 	ori	r22,r0,63;	[0x3f]
    a4e8:	40 00 60 53 	ori	r27,r0,64;	[0x40]
    a4ec:	14 60 36 0b 	sgeu	r20,r22,r25
    a4f0:	18 08 1b 08 	or	r24,r27,r0
    a4f4:	18 34 34 0b 	mvnz	r24,r20,r25
    a4f8:	02 08 01 08 	or	r2,r1,r0
    a4fc:	03 08 1a 08 	or	r3,r26,r0
    a500:	04 08 18 08 	or	r4,r24,r0
    a504:	14 00 80 26 	lhi	r20,20;	[0xa000]
    a508:	73 08 54 02 	ja	r18,r20,460;	[0x1cc] 0xa1cc <EepromAutoWrite>
    a50c:	f0 0b 02 10 	bnei	r2,0,a4d0 <FillEeprom+0x68>
    a510:	19 80 19 0b 	sub	r25,r25,r24
    a514:	1a 00 1a 0b 	add	r26,r26,r24
    a518:	f4 0b 19 10 	bnei	r25,0,a4ec <FillEeprom+0x84>
    a51c:	02 08 00 08 	or	r2,r0,r0
    a520:	10 00 41 22 	ld32	r18,[r1,64]
    a524:	11 00 c1 22 	ld32	r22,[r1,68]
    a528:	12 00 01 23 	ld32	r24,[r1,72]
    a52c:	13 00 21 23 	ld32	r25,[r1,76]
    a530:	14 00 41 23 	ld32	r26,[r1,80]
    a534:	15 00 61 23 	ld32	r27,[r1,84]
    a538:	58 00 21 00 	addi	r1,r1,88
    a53c:	00 08 12 00 	ja	r0,r18,0;	[0x0]

0000a540 <ReadEeprom>:
    a540:	00 00 c1 24 	lhi	r6,65536;	[0x8000000]
    a544:	ff 7f 63 30 	andi	r3,r3,32767
    a548:	06 00 c3 08 	add	r6,r3,r6
    a54c:	15 00 86 08 	add	r21,r6,r4
    a550:	10 00 81 26 	lhi	r20,65552;	[0x8008000]
    a554:	02 20 b4 1a 	bgeu	r20,r21,a560 <ReadEeprom+0x20>
    a558:	02 08 00 08 	or	r2,r0,r0
    a55c:	0b 00 00 14 	j	r0,a58c <ReadEeprom+0x4c>
    a560:	15 08 00 08 	or	r21,r0,r0
    a564:	08 20 95 18 	bgeu	r21,r4,a588 <ReadEeprom+0x48>
    a568:	14 18 06 28 	lr8	r20,[r6,r0]
    a56c:	14 1c 02 28 	sr8	r20,[r2,r0]
    a570:	01 00 c6 00 	addi	r6,r6,1
    a574:	01 00 42 00 	addi	r2,r2,1
    a578:	01 00 95 02 	addi	r20,r21,1
    a57c:	10 10 94 02 	slli	r20,r20,16
    a580:	10 30 b4 02 	sari	r21,r20,16
    a584:	f8 33 95 18 	bltu	r21,r4,a568 <ReadEeprom+0x28>
    a588:	01 00 40 50 	ori	r2,r0,1;	[0x1]
    a58c:	00 08 12 00 	ja	r0,r18,0;	[0x0]

0000a590 <ReadFlash>:
    a590:	15 08 00 08 	or	r21,r0,r0
    a594:	06 00 95 18 	bge	r21,r4,a5b0 <ReadFlash+0x20>
    a598:	14 18 03 28 	lr8	r20,[r3,r0]
    a59c:	14 1c 02 28 	sr8	r20,[r2,r0]
    a5a0:	01 00 63 00 	addi	r3,r3,1
    a5a4:	01 00 42 00 	addi	r2,r2,1
    a5a8:	01 00 b5 02 	addi	r21,r21,1
    a5ac:	fa 13 95 18 	blt	r21,r4,a598 <ReadFlash+0x8>
    a5b0:	00 08 12 00 	ja	r0,r18,0;	[0x0]

0000a5b4 <zi1222_erase_flash>:
    a5b4:	7f 00 80 26 	lhi	r20,127;	[0x3f800]
    a5b8:	ff 07 94 52 	ori	r20,r20,2047;	[0x7ff] 0x3ffff <_erodata+0x18c43>
    a5bc:	02 04 82 0a 	and	r2,r2,r20
    a5c0:	21 00 a3 26 	lhi	r21,196641;	[0x18010800]
    a5c4:	40 00 b5 52 	ori	r21,r21,64;	[0x40] 0x18010840 <_stack+0xc00e844>
    a5c8:	05 00 80 52 	ori	r20,r0,5;	[0x5]
    a5cc:	14 04 15 28 	sr32	r20,[r21,r0]
    a5d0:	00 fc 42 30 	andi	r2,r2,-1024
    a5d4:	00 04 02 28 	sr32	r0,[r2,r0]
    a5d8:	00 04 15 28 	sr32	r0,[r21,r0]
    a5dc:	00 08 12 00 	ja	r0,r18,0;	[0x0]

0000a5e0 <__write_flash>:
    a5e0:	06 08 00 08 	or	r6,r0,r0
    a5e4:	7f 00 80 26 	lhi	r20,127;	[0x3f800]
    a5e8:	ff 07 94 52 	ori	r20,r20,2047;	[0x7ff] 0x3ffff <_erodata+0x18c43>
    a5ec:	02 04 82 0a 	and	r2,r2,r20
    a5f0:	21 00 a3 26 	lhi	r21,196641;	[0x18010800]
    a5f4:	40 00 b5 52 	ori	r21,r21,64;	[0x40] 0x18010840 <_stack+0xc00e844>
    a5f8:	05 00 80 52 	ori	r20,r0,5;	[0x5]
    a5fc:	14 04 15 28 	sr32	r20,[r21,r0]
    a600:	00 fc 82 32 	andi	r20,r2,-1024
    a604:	00 04 14 28 	sr32	r0,[r20,r0]
    a608:	00 04 15 28 	sr32	r0,[r21,r0]
    a60c:	01 00 80 52 	ori	r20,r0,1;	[0x1]
    a610:	14 04 15 28 	sr32	r20,[r21,r0]
    a614:	05 20 86 18 	bgeu	r6,r4,a62c <__write_flash+0x4c>
    a618:	14 00 03 28 	lr32	r20,[r3,r0]
    a61c:	14 04 c2 28 	sr32	r20,[r2,r6]
    a620:	04 00 63 00 	addi	r3,r3,4
    a624:	04 00 c6 00 	addi	r6,r6,4
    a628:	fb 33 86 18 	bltu	r6,r4,a618 <__write_flash+0x38>
    a62c:	21 00 83 26 	lhi	r20,196641;	[0x18010800]
    a630:	40 00 94 52 	ori	r20,r20,64;	[0x40] 0x18010840 <_stack+0xc00e844>
    a634:	00 04 14 28 	sr32	r0,[r20,r0]
    a638:	01 00 40 50 	ori	r2,r0,1;	[0x1]
    a63c:	00 08 12 00 	ja	r0,r18,0;	[0x0]

0000a640 <WriteFlash>:
    a640:	04 fc a0 52 	ori	r21,r0,-1020;	[0xfffffc04]
    a644:	01 00 a1 0a 	add	r1,r1,r21
    a648:	fe 04 61 23 	sd32	r27,[r1,1016]
    a64c:	fd 04 41 23 	sd32	r26,[r1,1012]
    a650:	fc 04 21 23 	sd32	r25,[r1,1008]
    a654:	fb 04 01 23 	sd32	r24,[r1,1004]
    a658:	fa 04 e1 22 	sd32	r23,[r1,1000]
    a65c:	f9 04 c1 22 	sd32	r22,[r1,996]
    a660:	f8 04 01 21 	sd32	r8,[r1,992]
    a664:	f7 04 41 22 	sd32	r18,[r1,988]
    a668:	dc 03 21 00 	addi	r1,r1,-36
    a66c:	19 08 04 08 	or	r25,r4,r0
    a670:	15 00 23 0b 	add	r21,r3,r25
    a674:	80 00 80 26 	lhi	r20,128;	[0x40000]
    a678:	02 20 b4 1a 	bgeu	r20,r21,a684 <WriteFlash+0x44>
    a67c:	02 08 00 08 	or	r2,r0,r0
    a680:	22 00 00 14 	j	r0,a70c <WriteFlash+0xcc>
    a684:	00 fc 43 33 	andi	r26,r3,-1024
    a688:	ff 03 63 33 	andi	r27,r3,1023
    a68c:	00 04 80 52 	ori	r20,r0,1024;	[0x400]
    a690:	18 80 74 0b 	sub	r24,r20,r27
    a694:	16 08 02 08 	or	r22,r2,r0
    a698:	14 60 19 0b 	sgeu	r20,r25,r24
    a69c:	18 24 34 0b 	mvz	r24,r20,r25
    a6a0:	ff 03 00 51 	ori	r8,r0,1023;	[0x3ff]
    a6a4:	00 04 e0 52 	ori	r23,r0,1024;	[0x400]
    a6a8:	05 30 08 1b 	bltu	r8,r24,a6c0 <WriteFlash+0x80>
    a6ac:	02 08 01 08 	or	r2,r1,r0
    a6b0:	03 08 1a 08 	or	r3,r26,r0
    a6b4:	00 04 80 50 	ori	r4,r0,1024;	[0x400]
    a6b8:	14 00 80 26 	lhi	r20,20;	[0xa000]
    a6bc:	64 09 54 02 	ja	r18,r20,1424;	[0x590] 0xa590 <ReadFlash>
    a6c0:	02 00 61 0b 	add	r2,r1,r27
    a6c4:	03 08 16 08 	or	r3,r22,r0
    a6c8:	04 08 18 08 	or	r4,r24,r0
    a6cc:	16 00 80 26 	lhi	r20,22;	[0xb000]
    a6d0:	71 09 54 02 	ja	r18,r20,1476;	[0x5c4] 0xb5c4 <memcpy>
    a6d4:	02 08 1a 08 	or	r2,r26,r0
    a6d8:	03 08 01 08 	or	r3,r1,r0
    a6dc:	00 04 80 50 	ori	r4,r0,1024;	[0x400]
    a6e0:	14 00 80 26 	lhi	r20,20;	[0xa000]
    a6e4:	78 09 54 02 	ja	r18,r20,1504;	[0x5e0] 0xa5e0 <__write_flash>
    a6e8:	1a 00 fa 0a 	add	r26,r26,r23
    a6ec:	1b 08 00 08 	or	r27,r0,r0
    a6f0:	19 80 19 0b 	sub	r25,r25,r24
    a6f4:	16 00 16 0b 	add	r22,r22,r24
    a6f8:	14 60 37 0b 	sgeu	r20,r23,r25
    a6fc:	18 08 17 08 	or	r24,r23,r0
    a700:	18 34 34 0b 	mvnz	r24,r20,r25
    a704:	e8 0b 19 10 	bnei	r25,0,a6a8 <WriteFlash+0x68>
    a708:	01 00 40 50 	ori	r2,r0,1;	[0x1]
    a70c:	24 00 21 00 	addi	r1,r1,36
    a710:	f7 00 41 22 	ld32	r18,[r1,988]
    a714:	f8 00 01 21 	ld32	r8,[r1,992]
    a718:	f9 00 c1 22 	ld32	r22,[r1,996]
    a71c:	fa 00 e1 22 	ld32	r23,[r1,1000]
    a720:	fb 00 01 23 	ld32	r24,[r1,1004]
    a724:	fc 00 21 23 	ld32	r25,[r1,1008]
    a728:	fd 00 41 23 	ld32	r26,[r1,1012]
    a72c:	fe 00 61 23 	ld32	r27,[r1,1016]
    a730:	fc 03 a0 52 	ori	r21,r0,1020;	[0x3fc]
    a734:	01 00 a1 0a 	add	r1,r1,r21
    a738:	00 08 12 00 	ja	r0,r18,0;	[0x0]

0000a73c <WriteFlashPage>:
    a73c:	fc 03 21 00 	addi	r1,r1,-4
    a740:	12 04 01 28 	sr32	r18,[r1,r0]
    a744:	14 08 02 08 	or	r20,r2,r0
    a748:	02 08 03 08 	or	r2,r3,r0
    a74c:	03 08 14 08 	or	r3,r20,r0
    a750:	00 04 80 50 	ori	r4,r0,1024;	[0x400]
    a754:	14 00 80 26 	lhi	r20,20;	[0xa000]
    a758:	78 09 54 02 	ja	r18,r20,1504;	[0x5e0] 0xa5e0 <__write_flash>
    a75c:	ff 00 42 30 	andi	r2,r2,255
    a760:	12 00 01 28 	lr32	r18,[r1,r0]
    a764:	04 00 21 00 	addi	r1,r1,4
    a768:	00 08 12 00 	ja	r0,r18,0;	[0x0]

0000a76c <get_ep_num>:
    a76c:	02 08 22 10 	bnei	r2,1,a778 <get_ep_num+0xc>
    a770:	02 08 00 08 	or	r2,r0,r0
    a774:	0b 00 00 14 	j	r0,a7a4 <get_ep_num+0x38>
    a778:	02 08 42 10 	bnei	r2,2,a784 <get_ep_num+0x18>
    a77c:	01 00 40 50 	ori	r2,r0,1;	[0x1]
    a780:	08 00 00 14 	j	r0,a7a4 <get_ep_num+0x38>
    a784:	02 08 82 10 	bnei	r2,4,a790 <get_ep_num+0x24>
    a788:	02 00 40 50 	ori	r2,r0,2;	[0x2]
    a78c:	05 00 00 14 	j	r0,a7a4 <get_ep_num+0x38>
    a790:	08 00 80 52 	ori	r20,r0,8;	[0x8]
    a794:	14 48 82 0a 	sne	r20,r2,r20
    a798:	04 00 a0 52 	ori	r21,r0,4;	[0x4]
    a79c:	03 00 40 50 	ori	r2,r0,3;	[0x3]
    a7a0:	02 34 b4 0a 	mvnz	r2,r20,r21
    a7a4:	00 08 12 00 	ja	r0,r18,0;	[0x0]

0000a7a8 <get_ep_sts_addr>:
    a7a8:	04 08 02 10 	bnei	r2,0,a7bc <get_ep_sts_addr+0x14>
    a7ac:	05 10 a3 02 	slli	r21,r3,5
    a7b0:	00 00 83 26 	lhi	r20,196608;	[0x18000000]
    a7b4:	04 02 94 52 	ori	r20,r20,516;	[0x204] 0x18000204 <_stack+0xbffe208>
    a7b8:	03 00 00 14 	j	r0,a7c8 <get_ep_sts_addr+0x20>
    a7bc:	05 10 a3 02 	slli	r21,r3,5
    a7c0:	00 00 83 26 	lhi	r20,196608;	[0x18000000]
    a7c4:	04 00 94 52 	ori	r20,r20,4;	[0x4] 0x18000004 <_stack+0xbffe008>
    a7c8:	02 00 95 0a 	add	r2,r21,r20
    a7cc:	00 08 12 00 	ja	r0,r18,0;	[0x0]

0000a7d0 <get_ep_sts>:
    a7d0:	fc 03 21 00 	addi	r1,r1,-4
    a7d4:	12 04 01 28 	sr32	r18,[r1,r0]
    a7d8:	14 00 80 26 	lhi	r20,20;	[0xa000]
    a7dc:	ea 09 54 02 	ja	r18,r20,1960;	[0x7a8] 0xa7a8 <get_ep_sts_addr>
    a7e0:	00 00 42 20 	ld32	r2,[r2,0]
    a7e4:	12 00 01 28 	lr32	r18,[r1,r0]
    a7e8:	04 00 21 00 	addi	r1,r1,4
    a7ec:	00 08 12 00 	ja	r0,r18,0;	[0x0]

0000a7f0 <clr_ep_sts>:
    a7f0:	f8 03 21 00 	addi	r1,r1,-8
    a7f4:	01 04 01 23 	sd32	r24,[r1,4]
    a7f8:	12 04 01 28 	sr32	r18,[r1,r0]
    a7fc:	18 08 04 08 	or	r24,r4,r0
    a800:	14 00 80 26 	lhi	r20,20;	[0xa000]
    a804:	ea 09 54 02 	ja	r18,r20,1960;	[0x7a8] 0xa7a8 <get_ep_sts_addr>
    a808:	00 00 82 22 	ld32	r20,[r2,0]
    a80c:	18 84 14 0b 	andn	r24,r20,r24
    a810:	00 04 02 23 	sd32	r24,[r2,0]
    a814:	12 00 01 28 	lr32	r18,[r1,r0]
    a818:	01 00 01 23 	ld32	r24,[r1,4]
    a81c:	08 00 21 00 	addi	r1,r1,8
    a820:	00 08 12 00 	ja	r0,r18,0;	[0x0]

0000a824 <get_pkt_sz>:
    a824:	fc 03 21 00 	addi	r1,r1,-4
    a828:	12 04 01 28 	sr32	r18,[r1,r0]
    a82c:	03 08 02 08 	or	r3,r2,r0
    a830:	02 08 00 08 	or	r2,r0,r0
    a834:	14 00 80 26 	lhi	r20,20;	[0xa000]
    a838:	f4 09 54 02 	ja	r18,r20,2000;	[0x7d0] 0xa7d0 <get_ep_sts>
    a83c:	0a 10 42 00 	slli	r2,r2,10
    a840:	15 20 42 00 	slri	r2,r2,21
    a844:	12 00 01 28 	lr32	r18,[r1,r0]
    a848:	04 00 21 00 	addi	r1,r1,4
    a84c:	00 08 12 00 	ja	r0,r18,0;	[0x0]

0000a850 <usb_setup_handler>:
    a850:	fc 03 21 00 	addi	r1,r1,-4
    a854:	12 04 01 28 	sr32	r18,[r1,r0]
    a858:	00 80 81 26 	lhi	r20,98304;	[0xc000000]
    a85c:	b9 01 94 52 	ori	r20,r20,441;	[0x1b9] 0xc0001b9 <g_req+0x1>
    a860:	15 38 14 28 	lr8u	r21,[r20,r0]
    a864:	b5 00 80 52 	ori	r20,r0,181;	[0xb5]
    a868:	03 08 95 1a 	bne	r21,r20,a878 <usb_setup_handler+0x28>
    a86c:	03 00 90 26 	lhi	r20,1048579;	[0x80001800]
    a870:	00 08 54 02 	ja	r18,r20,0;	[0x0] 0x80001800 <IPR+0x67fc27f0>
    a874:	5b 00 00 14 	j	r0,a9e4 <usb_setup_handler+0x194>
    a878:	00 80 c1 24 	lhi	r6,98304;	[0xc000000]
    a87c:	bf 01 c6 50 	ori	r6,r6,447;	[0x1bf] 0xc0001bf <g_req+0x7>
    a880:	14 38 06 28 	lr8u	r20,[r6,r0]
    a884:	08 10 94 02 	slli	r20,r20,8
    a888:	ff 3b a6 22 	ld8u	r21,[r6,-1]
    a88c:	14 00 b4 0a 	add	r20,r20,r21
    a890:	00 80 a1 26 	lhi	r21,98304;	[0xc000000]
    a894:	ac 01 b5 52 	ori	r21,r21,428;	[0x1ac] 0xc0001ac <usb_info+0xc>
    a898:	14 04 15 28 	sr32	r20,[r21,r0]
    a89c:	01 04 15 20 	sd32	r0,[r21,4]
    a8a0:	fa 3b e6 20 	ld8u	r7,[r6,-6]
    a8a4:	fe 07 f5 20 	sd32	r7,[r21,-8]
    a8a8:	fc 3b 86 22 	ld8u	r20,[r6,-4]
    a8ac:	ff 07 95 22 	sd32	r20,[r21,-4]
    a8b0:	02 04 15 20 	sd32	r0,[r21,8]
    a8b4:	f9 3b 86 22 	ld8u	r20,[r6,-7]
    a8b8:	00 80 61 26 	lhi	r19,98304;	[0xc000000]
    a8bc:	68 04 93 22 	sd32	r20,[r19,416]
    a8c0:	15 00 a0 26 	lhi	r21,21;	[0xa800]
    a8c4:	d8 00 b5 52 	ori	r21,r21,216;	[0xd8] 0xa8d8 <usb_setup_handler+0x88>
    a8c8:	46 20 27 12 	bgeui	r7,17,a9e4 <usb_setup_handler+0x194>
    a8cc:	14 68 f5 28 	lx16u	r20,[r21,r7]
    a8d0:	14 00 b4 0a 	add	r20,r20,r21
    a8d4:	00 08 14 00 	ja	r0,r20,0;	[0x0]
    a8d8:	0c 01 0c 01 	addi	r8,r12,268
    a8dc:	0c 01 0c 01 	addi	r8,r12,268
    a8e0:	0c 01 0c 01 	addi	r8,r12,268
    a8e4:	24 00 0c 01 	addi	r8,r12,36
    a8e8:	0c 01 0c 01 	addi	r8,r12,268
    a8ec:	0c 01 0c 01 	addi	r8,r12,268
    a8f0:	0c 01 0c 01 	addi	r8,r12,268
    a8f4:	0c 01 0c 01 	addi	r8,r12,268
    a8f8:	0c 01 00 00 	addi	r0,r0,268
    a8fc:	00 80 81 26 	lhi	r20,98304;	[0xc000000]
    a900:	bb 01 94 52 	ori	r20,r20,443;	[0x1bb] 0xc0001bb <g_req+0x3>
    a904:	15 38 14 28 	lr8u	r21,[r20,r0]
    a908:	04 08 15 10 	bnei	r21,0,a91c <usb_setup_handler+0xcc>
    a90c:	02 00 a0 52 	ori	r21,r0,2;	[0x2]
    a910:	00 80 81 26 	lhi	r20,98304;	[0xc000000]
    a914:	a8 01 94 52 	ori	r20,r20,424;	[0x1a8] 0xc0001a8 <usb_info+0x8>
    a918:	15 04 14 28 	sr32	r21,[r20,r0]
    a91c:	ff 03 95 02 	addi	r20,r21,-1
    a920:	15 00 a0 26 	lhi	r21,21;	[0xa800]
    a924:	38 01 b5 52 	ori	r21,r21,312;	[0x138] 0xa938 <usb_setup_handler+0xe8>
    a928:	2e 20 b4 10 	bgeui	r20,5,a9e4 <usb_setup_handler+0x194>
    a92c:	14 38 95 2a 	lr8u	r20,[r21,r20]
    a930:	14 00 b4 0a 	add	r20,r20,r21
    a934:	00 08 14 00 	ja	r0,r20,0;	[0x0]
    a938:	08 24 38 ac 	.long 0xac382408
    a93c:	ac 00 00 00 	addi	r0,r0,172
    a940:	00 80 a1 26 	lhi	r21,98304;	[0xc000000]
    a944:	ac 01 b5 52 	ori	r21,r21,428;	[0x1ac] 0xc0001ac <usb_info+0xc>
    a948:	14 00 15 28 	lr32	r20,[r21,r0]
    a94c:	25 30 74 12 	bltui	r20,19,a9e4 <usb_setup_handler+0x194>
    a950:	12 00 80 52 	ori	r20,r0,18;	[0x12]
    a954:	14 04 15 28 	sr32	r20,[r21,r0]
    a958:	22 00 00 14 	j	r0,a9e4 <usb_setup_handler+0x194>
    a95c:	00 80 c1 24 	lhi	r6,98304;	[0xc000000]
    a960:	ac 01 c6 50 	ori	r6,r6,428;	[0x1ac] 0xc0001ac <usb_info+0xc>
    a964:	14 00 06 28 	lr32	r20,[r6,r0]
    a968:	39 00 a0 52 	ori	r21,r0,57;	[0x39]
    a96c:	1b 00 00 14 	j	r0,a9dc <usb_setup_handler+0x18c>
    a970:	00 80 81 26 	lhi	r20,98304;	[0xc000000]
    a974:	ba 01 94 52 	ori	r20,r20,442;	[0x1ba] 0xc0001ba <g_req+0x2>
    a978:	14 38 14 28 	lr8u	r20,[r20,r0]
    a97c:	07 18 74 10 	beqi	r20,3,a99c <usb_setup_handler+0x14c>
    a980:	02 00 94 10 	bgei	r20,4,a98c <usb_setup_handler+0x13c>
    a984:	08 18 54 10 	beqi	r20,2,a9a8 <usb_setup_handler+0x158>
    a988:	0a 00 00 14 	j	r0,a9b4 <usb_setup_handler+0x164>
    a98c:	09 08 94 10 	bnei	r20,4,a9b4 <usb_setup_handler+0x164>
    a990:	4c 00 80 26 	lhi	r20,76;	[0x26000]
    a994:	e8 01 94 52 	ori	r20,r20,488;	[0x1e8] 0x261e8 <manufacturerString>
    a998:	08 00 00 14 	j	r0,a9bc <usb_setup_handler+0x16c>
    a99c:	4c 00 80 26 	lhi	r20,76;	[0x26000]
    a9a0:	f4 01 94 52 	ori	r20,r20,500;	[0x1f4] 0x261f4 <productString>
    a9a4:	05 00 00 14 	j	r0,a9bc <usb_setup_handler+0x16c>
    a9a8:	4c 00 80 26 	lhi	r20,76;	[0x26000]
    a9ac:	10 02 94 52 	ori	r20,r20,528;	[0x210] 0x26210 <srialnumString>
    a9b0:	02 00 00 14 	j	r0,a9bc <usb_setup_handler+0x16c>
    a9b4:	4c 00 80 26 	lhi	r20,76;	[0x26000]
    a9b8:	3c 02 94 52 	ori	r20,r20,572;	[0x23c] 0x2623c <languageString>
    a9bc:	00 80 61 26 	lhi	r19,98304;	[0xc000000]
    a9c0:	3e 04 93 22 	sd32	r20,[r19,248]
    a9c4:	00 80 c1 24 	lhi	r6,98304;	[0xc000000]
    a9c8:	ac 01 c6 50 	ori	r6,r6,428;	[0x1ac] 0xc0001ac <usb_info+0xc>
    a9cc:	00 80 81 26 	lhi	r20,98304;	[0xc000000]
    a9d0:	3e 00 94 22 	ld32	r20,[r20,248]
    a9d4:	15 38 14 28 	lr8u	r21,[r20,r0]
    a9d8:	14 00 06 28 	lr32	r20,[r6,r0]
    a9dc:	01 20 95 1a 	bgeu	r21,r20,a9e4 <usb_setup_handler+0x194>
    a9e0:	15 04 06 28 	sr32	r21,[r6,r0]
    a9e4:	12 00 01 28 	lr32	r18,[r1,r0]
    a9e8:	04 00 21 00 	addi	r1,r1,4
    a9ec:	00 08 12 00 	ja	r0,r18,0;	[0x0]

0000a9f0 <usb_int_handler>:
    a9f0:	cc 03 21 00 	addi	r1,r1,-52
    a9f4:	0c 04 61 23 	sd32	r27,[r1,48]
    a9f8:	0b 04 41 23 	sd32	r26,[r1,44]
    a9fc:	0a 04 21 23 	sd32	r25,[r1,40]
    aa00:	09 04 01 23 	sd32	r24,[r1,36]
    aa04:	08 04 c1 22 	sd32	r22,[r1,32]
    aa08:	07 04 41 22 	sd32	r18,[r1,28]
    aa0c:	16 08 00 08 	or	r22,r0,r0
    aa10:	00 00 c3 24 	lhi	r6,196608;	[0x18000000]
    aa14:	0c 04 c6 50 	ori	r6,r6,1036;	[0x40c] 0x1800040c <_stack+0xbffe410>
    aa18:	00 00 a6 22 	ld32	r21,[r6,0]
    aa1c:	07 08 15 08 	or	r7,r21,r0
    aa20:	00 00 83 26 	lhi	r20,196608;	[0x18000000]
    aa24:	14 04 94 52 	ori	r20,r20,1044;	[0x414] 0x18000414 <_stack+0xbffe418>
    aa28:	00 00 54 23 	ld32	r26,[r20,0]
    aa2c:	01 18 15 10 	beqi	r21,0,aa34 <usb_int_handler+0x44>
    aa30:	00 04 e6 20 	sd32	r7,[r6,0]
    aa34:	cc 18 1a 10 	beqi	r26,0,ad68 <usb_int_handler+0x378>
    aa38:	10 20 5a 00 	slri	r2,r26,16
    aa3c:	14 00 80 26 	lhi	r20,20;	[0xa000]
    aa40:	db 09 54 02 	ja	r18,r20,1900;	[0x76c] 0xa76c <get_ep_num>
    aa44:	19 08 02 08 	or	r25,r2,r0
    aa48:	1f 00 40 24 	lhi	r2,31;	[0xf800]
    aa4c:	ff 07 42 50 	ori	r2,r2,2047;	[0x7ff] 0xffff <ECCGF2m_point_add+0x2d7>
    aa50:	02 04 5a 08 	and	r2,r26,r2
    aa54:	14 00 80 26 	lhi	r20,20;	[0xa000]
    aa58:	db 09 54 02 	ja	r18,r20,1900;	[0x76c] 0xa76c <get_ep_num>
    aa5c:	1b 08 02 08 	or	r27,r2,r0
    aa60:	0b 20 99 10 	bgeui	r25,4,aa90 <usb_int_handler+0xa0>
    aa64:	02 08 00 08 	or	r2,r0,r0
    aa68:	03 08 19 08 	or	r3,r25,r0
    aa6c:	14 00 80 26 	lhi	r20,20;	[0xa000]
    aa70:	f4 09 54 02 	ja	r18,r20,2000;	[0x7d0] 0xa7d0 <get_ep_sts>
    aa74:	16 08 02 08 	or	r22,r2,r0
    aa78:	e0 ff 9f 26 	lhi	r20,2097120;	[0xffff0000]
    aa7c:	14 04 9a 0a 	and	r20,r26,r20
    aa80:	00 00 a3 26 	lhi	r21,196608;	[0x18000000]
    aa84:	14 04 b5 52 	ori	r21,r21,1044;	[0x414] 0x18000414 <_stack+0xbffe418>
    aa88:	00 04 95 22 	sd32	r20,[r21,0]
    aa8c:	06 00 00 14 	j	r0,aaa8 <usb_int_handler+0xb8>
    aa90:	05 20 9b 10 	bgeui	r27,4,aaa8 <usb_int_handler+0xb8>
    aa94:	01 00 40 50 	ori	r2,r0,1;	[0x1]
    aa98:	03 08 1b 08 	or	r3,r27,r0
    aa9c:	14 00 80 26 	lhi	r20,20;	[0xa000]
    aaa0:	f4 09 54 02 	ja	r18,r20,2000;	[0x7d0] 0xa7d0 <get_ep_sts>
    aaa4:	16 08 02 08 	or	r22,r2,r0
    aaa8:	40 00 96 32 	andi	r20,r22,64
    aaac:	85 18 14 10 	beqi	r20,0,acc4 <usb_int_handler+0x2d4>
    aab0:	84 08 1b 10 	bnei	r27,0,acc4 <usb_int_handler+0x2d4>
    aab4:	00 80 81 26 	lhi	r20,98304;	[0xc000000]
    aab8:	68 00 94 22 	ld32	r20,[r20,416]
    aabc:	60 00 94 32 	andi	r20,r20,96
    aac0:	61 08 14 10 	bnei	r20,0,ac48 <usb_int_handler+0x258>
    aac4:	00 80 c1 24 	lhi	r6,98304;	[0xc000000]
    aac8:	a4 01 c6 50 	ori	r6,r6,420;	[0x1a4] 0xc0001a4 <usb_info+0x4>
    aacc:	14 00 06 28 	lr32	r20,[r6,r0]
    aad0:	58 08 d4 10 	bnei	r20,6,ac34 <usb_int_handler+0x244>
    aad4:	02 00 a6 22 	ld32	r21,[r6,8]
    aad8:	03 00 86 22 	ld32	r20,[r6,12]
    aadc:	18 80 95 0a 	sub	r24,r21,r20
    aae0:	6d 10 38 10 	blti	r24,1,ac98 <usb_int_handler+0x2a8>
    aae4:	01 00 86 22 	ld32	r20,[r6,4]
    aae8:	ff 03 94 02 	addi	r20,r20,-1
    aaec:	15 00 a0 26 	lhi	r21,21;	[0xa800]
    aaf0:	04 03 b5 52 	ori	r21,r21,772;	[0x304] 0xab04 <usb_int_handler+0x114>
    aaf4:	68 20 b4 10 	bgeui	r20,5,ac98 <usb_int_handler+0x2a8>
    aaf8:	14 68 95 2a 	lx16u	r20,[r21,r20]
    aafc:	14 00 b4 0a 	add	r20,r20,r21
    ab00:	00 08 14 00 	ja	r0,r20,0;	[0x0]
    ab04:	0c 00 84 00 	addi	r4,r4,12
    ab08:	bc 00 94 01 	addi	r12,r20,188
    ab0c:	94 01 00 00 	addi	r0,r0,404
    ab10:	02 08 01 08 	or	r2,r1,r0
    ab14:	4c 00 60 24 	lhi	r3,76;	[0x26000]
    ab18:	b4 01 63 50 	ori	r3,r3,436;	[0x1b4] 0x261b4 <zteic_dev_desc>
    ab1c:	12 00 80 50 	ori	r4,r0,18;	[0x12]
    ab20:	16 00 80 26 	lhi	r20,22;	[0xb000]
    ab24:	71 09 54 02 	ja	r18,r20,1476;	[0x5c4] 0xb5c4 <memcpy>
    ab28:	4e 00 a0 26 	lhi	r21,78;	[0x27000]
    ab2c:	a6 00 b5 52 	ori	r21,r21,166;	[0xa6] 0x270a6 <VID>
    ab30:	14 18 15 28 	lr8	r20,[r21,r0]
    ab34:	08 1c 81 22 	sd8	r20,[r1,8]
    ab38:	01 38 95 22 	ld8u	r20,[r21,1]
    ab3c:	09 1c 81 22 	sd8	r20,[r1,9]
    ab40:	4e 00 a0 26 	lhi	r21,78;	[0x27000]
    ab44:	a4 00 b5 52 	ori	r21,r21,164;	[0xa4] 0x270a4 <PID>
    ab48:	14 18 15 28 	lr8	r20,[r21,r0]
    ab4c:	0a 1c 81 22 	sd8	r20,[r1,10]
    ab50:	01 38 95 22 	ld8u	r20,[r21,1]
    ab54:	0b 1c 81 22 	sd8	r20,[r1,11]
    ab58:	20 00 80 52 	ori	r20,r0,32;	[0x20]
    ab5c:	05 00 14 1b 	bge	r20,r24,ab74 <usb_int_handler+0x184>
    ab60:	00 80 81 26 	lhi	r20,98304;	[0xc000000]
    ab64:	b0 01 94 52 	ori	r20,r20,432;	[0x1b0] 0xc0001b0 <usb_info+0x10>
    ab68:	14 00 14 28 	lr32	r20,[r20,r0]
    ab6c:	02 00 81 0a 	add	r2,r1,r20
    ab70:	1b 00 00 14 	j	r0,abe0 <usb_int_handler+0x1f0>
    ab74:	00 80 81 26 	lhi	r20,98304;	[0xc000000]
    ab78:	b0 01 94 52 	ori	r20,r20,432;	[0x1b0] 0xc0001b0 <usb_info+0x10>
    ab7c:	14 00 14 28 	lr32	r20,[r20,r0]
    ab80:	02 00 81 0a 	add	r2,r1,r20
    ab84:	21 00 00 14 	j	r0,ac0c <usb_int_handler+0x21c>
    ab88:	20 00 80 52 	ori	r20,r0,32;	[0x20]
    ab8c:	06 00 14 1b 	bge	r20,r24,aba8 <usb_int_handler+0x1b8>
    ab90:	00 80 81 26 	lhi	r20,98304;	[0xc000000]
    ab94:	b0 01 94 52 	ori	r20,r20,432;	[0x1b0] 0xc0001b0 <usb_info+0x10>
    ab98:	02 00 14 28 	lr32	r2,[r20,r0]
    ab9c:	4c 00 80 26 	lhi	r20,76;	[0x26000]
    aba0:	c8 01 94 52 	ori	r20,r20,456;	[0x1c8] 0x261c8 <zteic_cfg_desc>
    aba4:	0d 00 00 14 	j	r0,abdc <usb_int_handler+0x1ec>
    aba8:	00 80 81 26 	lhi	r20,98304;	[0xc000000]
    abac:	b0 01 94 52 	ori	r20,r20,432;	[0x1b0] 0xc0001b0 <usb_info+0x10>
    abb0:	02 00 14 28 	lr32	r2,[r20,r0]
    abb4:	4c 00 80 26 	lhi	r20,76;	[0x26000]
    abb8:	c8 01 94 52 	ori	r20,r20,456;	[0x1c8] 0x261c8 <zteic_cfg_desc>
    abbc:	12 00 00 14 	j	r0,ac08 <usb_int_handler+0x218>
    abc0:	20 00 80 52 	ori	r20,r0,32;	[0x20]
    abc4:	0b 00 14 1b 	bge	r20,r24,abf4 <usb_int_handler+0x204>
    abc8:	00 80 81 26 	lhi	r20,98304;	[0xc000000]
    abcc:	b0 01 94 52 	ori	r20,r20,432;	[0x1b0] 0xc0001b0 <usb_info+0x10>
    abd0:	14 00 14 28 	lr32	r20,[r20,r0]
    abd4:	00 80 41 24 	lhi	r2,98304;	[0xc000000]
    abd8:	3e 00 42 20 	ld32	r2,[r2,248]
    abdc:	02 00 82 0a 	add	r2,r2,r20
    abe0:	20 00 60 50 	ori	r3,r0,32;	[0x20]
    abe4:	04 08 00 08 	or	r4,r0,r0
    abe8:	15 00 80 26 	lhi	r20,21;	[0xa800]
    abec:	af 09 54 02 	ja	r18,r20,1724;	[0x6bc] 0xaebc <usb_fifo_out>
    abf0:	0a 00 00 14 	j	r0,ac1c <usb_int_handler+0x22c>
    abf4:	00 80 81 26 	lhi	r20,98304;	[0xc000000]
    abf8:	b0 01 94 52 	ori	r20,r20,432;	[0x1b0] 0xc0001b0 <usb_info+0x10>
    abfc:	14 00 14 28 	lr32	r20,[r20,r0]
    ac00:	00 80 41 24 	lhi	r2,98304;	[0xc000000]
    ac04:	3e 00 42 20 	ld32	r2,[r2,248]
    ac08:	02 00 82 0a 	add	r2,r2,r20
    ac0c:	03 08 18 08 	or	r3,r24,r0
    ac10:	04 08 00 08 	or	r4,r0,r0
    ac14:	15 00 80 26 	lhi	r20,21;	[0xa800]
    ac18:	af 09 54 02 	ja	r18,r20,1724;	[0x6bc] 0xaebc <usb_fifo_out>
    ac1c:	00 80 a1 26 	lhi	r21,98304;	[0xc000000]
    ac20:	b0 01 b5 52 	ori	r21,r21,432;	[0x1b0] 0xc0001b0 <usb_info+0x10>
    ac24:	14 00 15 28 	lr32	r20,[r21,r0]
    ac28:	20 00 94 02 	addi	r20,r20,32
    ac2c:	14 04 15 28 	sr32	r20,[r21,r0]
    ac30:	19 00 00 14 	j	r0,ac98 <usb_int_handler+0x2a8>
    ac34:	4c 00 40 24 	lhi	r2,76;	[0x26000]
    ac38:	40 02 42 50 	ori	r2,r2,576;	[0x240] 0x26240 <languageString+0x4>
    ac3c:	18 00 80 26 	lhi	r20,24;	[0xc000]
    ac40:	21 09 54 02 	ja	r18,r20,1156;	[0x484] 0xc484 <sio_printf>
    ac44:	14 00 00 14 	j	r0,ac98 <usb_int_handler+0x2a8>
    ac48:	00 80 81 26 	lhi	r20,98304;	[0xc000000]
    ac4c:	68 00 94 22 	ld32	r20,[r20,416]
    ac50:	60 00 94 32 	andi	r20,r20,96
    ac54:	20 00 a0 52 	ori	r21,r0,32;	[0x20]
    ac58:	0f 08 b4 1a 	bne	r20,r21,ac98 <usb_int_handler+0x2a8>
    ac5c:	03 80 81 26 	lhi	r20,98307;	[0xc001800]
    ac60:	b1 00 94 52 	ori	r20,r20,177;	[0xb1] 0xc0018b1 <lun_num>
    ac64:	14 18 14 28 	lr8	r20,[r20,r0]
    ac68:	ff 03 94 02 	addi	r20,r20,-1
    ac6c:	18 1c 81 22 	sd8	r20,[r1,24]
    ac70:	00 80 81 26 	lhi	r20,98304;	[0xc000000]
    ac74:	a4 01 94 52 	ori	r20,r20,420;	[0x1a4] 0xc0001a4 <usb_info+0x4>
    ac78:	15 00 14 28 	lr32	r21,[r20,r0]
    ac7c:	fe 00 80 52 	ori	r20,r0,254;	[0xfe]
    ac80:	05 08 95 1a 	bne	r21,r20,ac98 <usb_int_handler+0x2a8>
    ac84:	18 00 41 00 	addi	r2,r1,24
    ac88:	01 00 60 50 	ori	r3,r0,1;	[0x1]
    ac8c:	04 08 00 08 	or	r4,r0,r0
    ac90:	15 00 80 26 	lhi	r20,21;	[0xa800]
    ac94:	af 09 54 02 	ja	r18,r20,1724;	[0x6bc] 0xaebc <usb_fifo_out>
    ac98:	01 00 40 50 	ori	r2,r0,1;	[0x1]
    ac9c:	03 08 1b 08 	or	r3,r27,r0
    aca0:	40 00 80 50 	ori	r4,r0,64;	[0x40]
    aca4:	14 00 80 26 	lhi	r20,20;	[0xa000]
    aca8:	fc 09 54 02 	ja	r18,r20,2032;	[0x7f0] 0xa7f0 <clr_ep_sts>
    acac:	1f 00 80 26 	lhi	r20,31;	[0xf800]
    acb0:	ff 07 94 52 	ori	r20,r20,2047;	[0x7ff] 0xffff <ECCGF2m_point_add+0x2d7>
    acb4:	14 04 9a 0a 	and	r20,r26,r20
    acb8:	00 00 a3 26 	lhi	r21,196608;	[0x18000000]
    acbc:	14 04 b5 52 	ori	r21,r21,1044;	[0x414] 0x18000414 <_stack+0xbffe418>
    acc0:	00 04 95 22 	sd32	r20,[r21,0]
    acc4:	30 00 96 32 	andi	r20,r22,48
    acc8:	27 18 14 10 	beqi	r20,0,ad68 <usb_int_handler+0x378>
    accc:	00 02 96 32 	andi	r20,r22,512
    acd0:	05 18 14 10 	beqi	r20,0,ace8 <usb_int_handler+0x2f8>
    acd4:	00 00 a3 26 	lhi	r21,196608;	[0x18000000]
    acd8:	04 04 b5 52 	ori	r21,r21,1028;	[0x404] 0x18000404 <_stack+0xbffe408>
    acdc:	00 00 95 22 	ld32	r20,[r21,0]
    ace0:	00 04 94 32 	andi	r20,r20,1024
    ace4:	00 04 95 22 	sd32	r20,[r21,0]
    ace8:	30 00 b6 32 	andi	r21,r22,48
    acec:	20 00 80 52 	ori	r20,r0,32;	[0x20]
    acf0:	0f 08 95 1a 	bne	r21,r20,ad30 <usb_int_handler+0x340>
    acf4:	02 08 00 08 	or	r2,r0,r0
    acf8:	03 08 19 08 	or	r3,r25,r0
    acfc:	30 00 80 50 	ori	r4,r0,48;	[0x30]
    ad00:	14 00 80 26 	lhi	r20,20;	[0xa000]
    ad04:	fc 09 54 02 	ja	r18,r20,2032;	[0x7f0] 0xa7f0 <clr_ep_sts>
    ad08:	00 80 41 24 	lhi	r2,98304;	[0xc000000]
    ad0c:	b8 01 42 50 	ori	r2,r2,440;	[0x1b8] 0xc0001b8 <g_req>
    ad10:	08 00 60 50 	ori	r3,r0,8;	[0x8]
    ad14:	04 08 19 08 	or	r4,r25,r0
    ad18:	15 00 80 26 	lhi	r20,21;	[0xa800]
    ad1c:	e4 09 54 02 	ja	r18,r20,1936;	[0x790] 0xaf90 <usb_fifo_in>
    ad20:	02 08 19 08 	or	r2,r25,r0
    ad24:	15 00 80 26 	lhi	r20,21;	[0xa800]
    ad28:	14 08 54 02 	ja	r18,r20,80;	[0x50] 0xa850 <usb_setup_handler>
    ad2c:	0e 00 00 14 	j	r0,ad68 <usb_int_handler+0x378>
    ad30:	02 08 00 08 	or	r2,r0,r0
    ad34:	03 08 19 08 	or	r3,r25,r0
    ad38:	30 00 80 50 	ori	r4,r0,48;	[0x30]
    ad3c:	14 00 80 26 	lhi	r20,20;	[0xa000]
    ad40:	fc 09 54 02 	ja	r18,r20,2032;	[0x7f0] 0xa7f0 <clr_ep_sts>
    ad44:	02 08 19 08 	or	r2,r25,r0
    ad48:	15 00 80 26 	lhi	r20,21;	[0xa800]
    ad4c:	09 08 54 02 	ja	r18,r20,36;	[0x24] 0xa824 <get_pkt_sz>
    ad50:	03 08 02 08 	or	r3,r2,r0
    ad54:	00 80 41 24 	lhi	r2,98304;	[0xc000000]
    ad58:	60 01 42 50 	ori	r2,r2,352;	[0x160] 0xc000160 <udc_data_buf>
    ad5c:	04 08 19 08 	or	r4,r25,r0
    ad60:	15 00 80 26 	lhi	r20,21;	[0xa800]
    ad64:	e4 09 54 02 	ja	r18,r20,1936;	[0x790] 0xaf90 <usb_fifo_in>
    ad68:	07 00 41 22 	ld32	r18,[r1,28]
    ad6c:	08 00 c1 22 	ld32	r22,[r1,32]
    ad70:	09 00 01 23 	ld32	r24,[r1,36]
    ad74:	0a 00 21 23 	ld32	r25,[r1,40]
    ad78:	0b 00 41 23 	ld32	r26,[r1,44]
    ad7c:	0c 00 61 23 	ld32	r27,[r1,48]
    ad80:	34 00 21 00 	addi	r1,r1,52
    ad84:	00 08 12 00 	ja	r0,r18,0;	[0x0]

0000ad88 <init_usb_info_struct>:
    ad88:	00 80 81 26 	lhi	r20,98304;	[0xc000000]
    ad8c:	a4 01 94 52 	ori	r20,r20,420;	[0x1a4] 0xc0001a4 <usb_info+0x4>
    ad90:	00 04 14 28 	sr32	r0,[r20,r0]
    ad94:	01 04 14 20 	sd32	r0,[r20,4]
    ad98:	02 04 14 20 	sd32	r0,[r20,8]
    ad9c:	03 04 14 20 	sd32	r0,[r20,12]
    ada0:	04 04 14 20 	sd32	r0,[r20,16]
    ada4:	00 08 12 00 	ja	r0,r18,0;	[0x0]

0000ada8 <usb_initialize>:
    ada8:	fc 03 21 00 	addi	r1,r1,-4
    adac:	12 04 01 28 	sr32	r18,[r1,r0]
    adb0:	00 10 80 66 	rcr	r20,SR(0)
    adb4:	fe ff 94 32 	andi	r20,r20,-2
    adb8:	00 14 80 66 	wcr	r20,SR(0)
    adbc:	00 00 a3 26 	lhi	r21,196608;	[0x18000000]
    adc0:	00 04 b5 52 	ori	r21,r21,1024;	[0x400] 0x18000400 <_stack+0xbffe404>
    adc4:	00 00 95 22 	ld32	r20,[r21,0]
    adc8:	07 00 94 52 	ori	r20,r20,7;	[0x7]
    adcc:	00 04 95 22 	sd32	r20,[r21,0]
    add0:	15 08 00 08 	or	r21,r0,r0
    add4:	00 00 83 26 	lhi	r20,196608;	[0x18000000]
    add8:	04 04 94 52 	ori	r20,r20,1028;	[0x404] 0x18000404 <_stack+0xbffe408>
    addc:	00 04 b4 22 	sd32	r21,[r20,0]
    ade0:	7f 00 a0 52 	ori	r21,r0,127;	[0x7f]
    ade4:	0c 00 94 02 	addi	r20,r20,12
    ade8:	00 04 b4 22 	sd32	r21,[r20,0]
    adec:	df ff bf 26 	lhi	r21,2097119;	[0xfffef800]
    adf0:	fe 07 b5 52 	ori	r21,r21,2046;	[0x7fe] 0xfffefffe <IPR+0xe7fb0fee>
    adf4:	08 00 94 02 	addi	r20,r20,8
    adf8:	00 04 b4 22 	sd32	r21,[r20,0]
    adfc:	00 20 a0 26 	lhi	r21,8192;	[0x1000000]
    ae00:	80 00 b5 52 	ori	r21,r21,128;	[0x80] 0x1000080 <_erodata+0xfd8cc4>
    ae04:	ec 00 94 02 	addi	r20,r20,236
    ae08:	00 04 b4 22 	sd32	r21,[r20,0]
    ae0c:	00 40 a0 26 	lhi	r21,16384;	[0x2000000]
    ae10:	d1 00 b5 52 	ori	r21,r21,209;	[0xd1] 0x20000d1 <_erodata+0x1fd8d15>
    ae14:	04 00 94 02 	addi	r20,r20,4
    ae18:	00 04 b4 22 	sd32	r21,[r20,0]
    ae1c:	f1 03 b5 02 	addi	r21,r21,-15
    ae20:	04 00 94 02 	addi	r20,r20,4
    ae24:	00 04 b4 22 	sd32	r21,[r20,0]
    ae28:	01 10 a0 26 	lhi	r21,4097;	[0x800800]
    ae2c:	f3 00 b5 52 	ori	r21,r21,243;	[0xf3] 0x8008f3 <_erodata+0x7d9537>
    ae30:	04 00 94 02 	addi	r20,r20,4
    ae34:	00 04 b4 22 	sd32	r21,[r20,0]
    ae38:	02 08 00 08 	or	r2,r0,r0
    ae3c:	02 00 60 50 	ori	r3,r0,2;	[0x2]
    ae40:	30 00 80 50 	ori	r4,r0,48;	[0x30]
    ae44:	14 00 80 26 	lhi	r20,20;	[0xa000]
    ae48:	fc 09 54 02 	ja	r18,r20,2032;	[0x7f0] 0xa7f0 <clr_ep_sts>
    ae4c:	01 00 40 50 	ori	r2,r0,1;	[0x1]
    ae50:	01 00 60 50 	ori	r3,r0,1;	[0x1]
    ae54:	40 00 80 50 	ori	r4,r0,64;	[0x40]
    ae58:	14 00 80 26 	lhi	r20,20;	[0xa000]
    ae5c:	fc 09 54 02 	ja	r18,r20,2032;	[0x7f0] 0xa7f0 <clr_ep_sts>
    ae60:	ff ff a0 52 	ori	r21,r0,-1;	[0xffffffff]
    ae64:	00 00 83 26 	lhi	r20,196608;	[0x18000000]
    ae68:	14 04 94 52 	ori	r20,r20,1044;	[0x414] 0x18000414 <_stack+0xbffe418>
    ae6c:	00 04 b4 22 	sd32	r21,[r20,0]
    ae70:	f8 03 94 02 	addi	r20,r20,-8
    ae74:	00 04 b4 22 	sd32	r21,[r20,0]
    ae78:	0c 02 40 50 	ori	r2,r0,524;	[0x20c]
    ae7c:	15 00 60 24 	lhi	r3,21;	[0xa800]
    ae80:	f0 01 63 50 	ori	r3,r3,496;	[0x1f0] 0xa9f0 <usb_int_handler>
    ae84:	12 00 80 26 	lhi	r20,18;	[0x9000]
    ae88:	30 09 54 02 	ja	r18,r20,1216;	[0x4c0] 0x94c0 <SetVectorTable>
    ae8c:	02 00 a0 26 	lhi	r21,2;	[0x1000]
    ae90:	7e 00 83 26 	lhi	r20,196734;	[0x1803f000]
    ae94:	0c 00 94 52 	ori	r20,r20,12;	[0xc] 0x1803f00c <IMR+0x8>
    ae98:	00 04 b4 22 	sd32	r21,[r20,0]
    ae9c:	15 00 80 26 	lhi	r20,21;	[0xa800]
    aea0:	62 09 54 02 	ja	r18,r20,1416;	[0x588] 0xad88 <init_usb_info_struct>
    aea4:	00 10 80 66 	rcr	r20,SR(0)
    aea8:	01 00 94 52 	ori	r20,r20,1;	[0x1]
    aeac:	00 14 80 66 	wcr	r20,SR(0)
    aeb0:	12 00 01 28 	lr32	r18,[r1,r0]
    aeb4:	04 00 21 00 	addi	r1,r1,4
    aeb8:	00 08 12 00 	ja	r0,r18,0;	[0x0]

0000aebc <usb_fifo_out>:
    aebc:	01 00 e3 24 	lhi	r7,196609;	[0x18000800]
    aec0:	80 00 e7 50 	ori	r7,r7,128;	[0x80] 0x18000880 <_stack+0xbffe884>
    aec4:	05 08 00 08 	or	r5,r0,r0
    aec8:	06 08 24 10 	bnei	r4,1,aee4 <usb_fifo_out+0x28>
    aecc:	00 00 83 26 	lhi	r20,196608;	[0x18000000]
    aed0:	08 00 94 52 	ori	r20,r20,8;	[0x8] 0x18000008 <_stack+0xbffe00c>
    aed4:	00 00 94 22 	ld32	r20,[r20,0]
    aed8:	02 10 94 02 	slli	r20,r20,2
    aedc:	07 00 f4 08 	add	r7,r20,r7
    aee0:	0a 00 00 14 	j	r0,af0c <usb_fifo_out+0x50>
    aee4:	09 08 64 10 	bnei	r4,3,af0c <usb_fifo_out+0x50>
    aee8:	00 00 a3 26 	lhi	r21,196608;	[0x18000000]
    aeec:	08 00 b5 52 	ori	r21,r21,8;	[0x8] 0x18000008 <_stack+0xbffe00c>
    aef0:	00 00 b5 22 	ld32	r21,[r21,0]
    aef4:	00 00 83 26 	lhi	r20,196608;	[0x18000000]
    aef8:	28 00 94 52 	ori	r20,r20,40;	[0x28] 0x18000028 <_stack+0xbffe02c>
    aefc:	00 00 94 22 	ld32	r20,[r20,0]
    af00:	15 00 95 0a 	add	r21,r21,r20
    af04:	02 10 b5 02 	slli	r21,r21,2
    af08:	07 00 a7 0a 	add	r7,r7,r21
    af0c:	0a 08 03 10 	bnei	r3,0,af38 <usb_fifo_out+0x7c>
    af10:	15 08 00 08 	or	r21,r0,r0
    af14:	00 00 83 26 	lhi	r20,196608;	[0x18000000]
    af18:	20 04 94 52 	ori	r20,r20,1056;	[0x420] 0x18000420 <_stack+0xbffe424>
    af1c:	00 04 b4 22 	sd32	r21,[r20,0]
    af20:	14 08 00 08 	or	r20,r0,r0
    af24:	00 04 87 22 	sd32	r20,[r7,0]
    af28:	00 00 83 26 	lhi	r20,196608;	[0x18000000]
    af2c:	1c 04 94 52 	ori	r20,r20,1052;	[0x41c] 0x1800041c <_stack+0xbffe420>
    af30:	00 04 b4 22 	sd32	r21,[r20,0]
    af34:	15 00 00 14 	j	r0,af8c <usb_fifo_out+0xd0>
    af38:	04 08 02 08 	or	r4,r2,r0
    af3c:	02 20 c3 00 	slri	r6,r3,2
    af40:	03 00 63 30 	andi	r3,r3,3
    af44:	15 08 00 08 	or	r21,r0,r0
    af48:	05 20 d5 18 	bgeu	r21,r6,af60 <usb_fifo_out+0xa4>
    af4c:	14 40 a4 2a 	lx32	r20,[r4,r21]
    af50:	00 04 87 22 	sd32	r20,[r7,0]
    af54:	04 00 a5 00 	addi	r5,r5,4
    af58:	01 00 b5 02 	addi	r21,r21,1
    af5c:	fb 33 d5 18 	bltu	r21,r6,af4c <usb_fifo_out+0x90>
    af60:	15 08 00 08 	or	r21,r0,r0
    af64:	05 20 75 18 	bgeu	r21,r3,af7c <usb_fifo_out+0xc0>
    af68:	14 18 a2 28 	lr8	r20,[r2,r5]
    af6c:	00 1c 87 22 	sd8	r20,[r7,0]
    af70:	01 00 a5 00 	addi	r5,r5,1
    af74:	01 00 b5 02 	addi	r21,r21,1
    af78:	fb 33 75 18 	bltu	r21,r3,af68 <usb_fifo_out+0xac>
    af7c:	15 08 00 08 	or	r21,r0,r0
    af80:	00 00 83 26 	lhi	r20,196608;	[0x18000000]
    af84:	1c 04 94 52 	ori	r20,r20,1052;	[0x41c] 0x1800041c <_stack+0xbffe420>
    af88:	00 04 b4 22 	sd32	r21,[r20,0]
    af8c:	00 08 12 00 	ja	r0,r18,0;	[0x0]

0000af90 <usb_fifo_in>:
    af90:	04 08 03 10 	bnei	r3,0,afa4 <usb_fifo_in+0x14>
    af94:	00 00 83 26 	lhi	r20,196608;	[0x18000000]
    af98:	1c 04 94 52 	ori	r20,r20,1052;	[0x41c] 0x1800041c <_stack+0xbffe420>
    af9c:	00 00 94 22 	ld32	r20,[r20,0]
    afa0:	0e 00 00 14 	j	r0,afdc <usb_fifo_in+0x4c>
    afa4:	02 20 e3 00 	slri	r7,r3,2
    afa8:	03 00 63 30 	andi	r3,r3,3
    afac:	15 08 00 08 	or	r21,r0,r0
    afb0:	06 20 f5 18 	bgeu	r21,r7,afcc <usb_fifo_in+0x3c>
    afb4:	01 00 c3 24 	lhi	r6,196609;	[0x18000800]
    afb8:	00 00 86 22 	ld32	r20,[r6,0]
    afbc:	14 04 02 28 	sr32	r20,[r2,r0]
    afc0:	01 00 b5 02 	addi	r21,r21,1
    afc4:	04 00 42 00 	addi	r2,r2,4
    afc8:	fb 33 f5 18 	bltu	r21,r7,afb8 <usb_fifo_in+0x28>
    afcc:	03 18 03 10 	beqi	r3,0,afdc <usb_fifo_in+0x4c>
    afd0:	01 00 83 26 	lhi	r20,196609;	[0x18000800]
    afd4:	00 00 94 22 	ld32	r20,[r20,0]
    afd8:	14 04 02 28 	sr32	r20,[r2,r0]
    afdc:	00 08 12 00 	ja	r0,r18,0;	[0x0]

0000afe0 <_usb_receive>:
    afe0:	ac 03 21 00 	addi	r1,r1,-84
    afe4:	14 04 21 23 	sd32	r25,[r1,80]
    afe8:	13 04 01 23 	sd32	r24,[r1,76]
    afec:	12 04 41 22 	sd32	r18,[r1,72]
    aff0:	19 08 02 08 	or	r25,r2,r0
    aff4:	02 08 00 08 	or	r2,r0,r0
    aff8:	02 00 60 50 	ori	r3,r0,2;	[0x2]
    affc:	14 00 80 26 	lhi	r20,20;	[0xa000]
    b000:	f4 09 54 02 	ja	r18,r20,2000;	[0x7d0] 0xa7d0 <get_ep_sts>
    b004:	30 00 42 30 	andi	r2,r2,48
    b008:	fa 1b 02 10 	beqi	r2,0,aff4 <_usb_receive+0x14>
    b00c:	02 00 40 50 	ori	r2,r0,2;	[0x2]
    b010:	15 00 80 26 	lhi	r20,21;	[0xa800]
    b014:	09 08 54 02 	ja	r18,r20,36;	[0x24] 0xa824 <get_pkt_sz>
    b018:	18 08 02 08 	or	r24,r2,r0
    b01c:	02 08 19 08 	or	r2,r25,r0
    b020:	03 08 18 08 	or	r3,r24,r0
    b024:	02 00 80 50 	ori	r4,r0,2;	[0x2]
    b028:	15 00 80 26 	lhi	r20,21;	[0xa800]
    b02c:	e4 09 54 02 	ja	r18,r20,1936;	[0x790] 0xaf90 <usb_fifo_in>
    b030:	e0 ff bf 26 	lhi	r21,2097120;	[0xffff0000]
    b034:	00 00 83 26 	lhi	r20,196608;	[0x18000000]
    b038:	14 04 94 52 	ori	r20,r20,1044;	[0x414] 0x18000414 <_stack+0xbffe418>
    b03c:	00 04 b4 22 	sd32	r21,[r20,0]
    b040:	02 08 00 08 	or	r2,r0,r0
    b044:	02 00 60 50 	ori	r3,r0,2;	[0x2]
    b048:	30 00 80 50 	ori	r4,r0,48;	[0x30]
    b04c:	14 00 80 26 	lhi	r20,20;	[0xa000]
    b050:	fc 09 54 02 	ja	r18,r20,2032;	[0x7f0] 0xa7f0 <clr_ep_sts>
    b054:	02 08 18 08 	or	r2,r24,r0
    b058:	12 00 41 22 	ld32	r18,[r1,72]
    b05c:	13 00 01 23 	ld32	r24,[r1,76]
    b060:	14 00 21 23 	ld32	r25,[r1,80]
    b064:	54 00 21 00 	addi	r1,r1,84
    b068:	00 08 12 00 	ja	r0,r18,0;	[0x0]

0000b06c <_usb_send>:
    b06c:	f4 03 21 00 	addi	r1,r1,-12
    b070:	02 04 21 23 	sd32	r25,[r1,8]
    b074:	01 04 01 23 	sd32	r24,[r1,4]
    b078:	12 04 01 28 	sr32	r18,[r1,r0]
    b07c:	19 08 02 08 	or	r25,r2,r0
    b080:	18 08 03 08 	or	r24,r3,r0
    b084:	01 00 40 50 	ori	r2,r0,1;	[0x1]
    b088:	01 00 60 50 	ori	r3,r0,1;	[0x1]
    b08c:	14 00 80 26 	lhi	r20,20;	[0xa000]
    b090:	f4 09 54 02 	ja	r18,r20,2000;	[0x7d0] 0xa7d0 <get_ep_sts>
    b094:	40 00 42 30 	andi	r2,r2,64
    b098:	fa 1b 02 10 	beqi	r2,0,b084 <_usb_send+0x18>
    b09c:	40 00 a0 52 	ori	r21,r0,64;	[0x40]
    b0a0:	14 60 15 0b 	sgeu	r20,r21,r24
    b0a4:	18 24 b4 0a 	mvz	r24,r20,r21
    b0a8:	02 08 19 08 	or	r2,r25,r0
    b0ac:	03 08 18 08 	or	r3,r24,r0
    b0b0:	01 00 80 50 	ori	r4,r0,1;	[0x1]
    b0b4:	15 00 80 26 	lhi	r20,21;	[0xa800]
    b0b8:	af 09 54 02 	ja	r18,r20,1724;	[0x6bc] 0xaebc <usb_fifo_out>
    b0bc:	01 00 40 50 	ori	r2,r0,1;	[0x1]
    b0c0:	01 00 60 50 	ori	r3,r0,1;	[0x1]
    b0c4:	40 00 80 50 	ori	r4,r0,64;	[0x40]
    b0c8:	14 00 80 26 	lhi	r20,20;	[0xa000]
    b0cc:	fc 09 54 02 	ja	r18,r20,2032;	[0x7f0] 0xa7f0 <clr_ep_sts>
    b0d0:	1f 00 a0 26 	lhi	r21,31;	[0xf800]
    b0d4:	ff 07 b5 52 	ori	r21,r21,2047;	[0x7ff] 0xffff <ECCGF2m_point_add+0x2d7>
    b0d8:	00 00 83 26 	lhi	r20,196608;	[0x18000000]
    b0dc:	14 04 94 52 	ori	r20,r20,1044;	[0x414] 0x18000414 <_stack+0xbffe418>
    b0e0:	00 04 b4 22 	sd32	r21,[r20,0]
    b0e4:	02 08 18 08 	or	r2,r24,r0
    b0e8:	12 00 01 28 	lr32	r18,[r1,r0]
    b0ec:	01 00 01 23 	ld32	r24,[r1,4]
    b0f0:	02 00 21 23 	ld32	r25,[r1,8]
    b0f4:	0c 00 21 00 	addi	r1,r1,12
    b0f8:	00 08 12 00 	ja	r0,r18,0;	[0x0]

0000b0fc <tolower>:
    b0fc:	ff 00 42 30 	andi	r2,r2,255
    b100:	4c 00 80 26 	lhi	r20,76;	[0x26000]
    b104:	50 02 94 52 	ori	r20,r20,592;	[0x250] 0x26250 <_ctype>
    b108:	14 18 54 28 	lr8	r20,[r20,r2]
    b10c:	01 00 94 32 	andi	r20,r20,1
    b110:	02 18 14 10 	beqi	r20,0,b11c <tolower+0x20>
    b114:	20 00 82 02 	addi	r20,r2,32
    b118:	ff 00 54 30 	andi	r2,r20,255
    b11c:	00 08 12 00 	ja	r0,r18,0;	[0x0]

0000b120 <toupper>:
    b120:	ff 00 42 30 	andi	r2,r2,255
    b124:	4c 00 80 26 	lhi	r20,76;	[0x26000]
    b128:	50 02 94 52 	ori	r20,r20,592;	[0x250] 0x26250 <_ctype>
    b12c:	14 18 54 28 	lr8	r20,[r20,r2]
    b130:	02 00 94 32 	andi	r20,r20,2
    b134:	02 18 14 10 	beqi	r20,0,b140 <toupper+0x20>
    b138:	e0 03 82 02 	addi	r20,r2,-32
    b13c:	ff 00 54 30 	andi	r2,r20,255
    b140:	00 08 12 00 	ja	r0,r18,0;	[0x0]

0000b144 <strnicmp>:
    b144:	e8 03 21 00 	addi	r1,r1,-24
    b148:	05 04 61 23 	sd32	r27,[r1,20]
    b14c:	04 04 41 23 	sd32	r26,[r1,16]
    b150:	03 04 21 23 	sd32	r25,[r1,12]
    b154:	02 04 01 23 	sd32	r24,[r1,8]
    b158:	01 04 c1 22 	sd32	r22,[r1,4]
    b15c:	12 04 01 28 	sr32	r18,[r1,r0]
    b160:	16 08 02 08 	or	r22,r2,r0
    b164:	1b 08 03 08 	or	r27,r3,r0
    b168:	1a 08 04 08 	or	r26,r4,r0
    b16c:	19 08 00 08 	or	r25,r0,r0
    b170:	18 08 00 08 	or	r24,r0,r0
    b174:	12 18 1a 10 	beqi	r26,0,b1c0 <strnicmp+0x7c>
    b178:	19 38 16 28 	lr8u	r25,[r22,r0]
    b17c:	18 38 1b 28 	lr8u	r24,[r27,r0]
    b180:	01 00 d6 02 	addi	r22,r22,1
    b184:	01 00 7b 03 	addi	r27,r27,1
    b188:	0d 18 19 10 	beqi	r25,0,b1c0 <strnicmp+0x7c>
    b18c:	0c 18 18 10 	beqi	r24,0,b1c0 <strnicmp+0x7c>
    b190:	09 18 19 1b 	beq	r25,r24,b1b8 <strnicmp+0x74>
    b194:	02 08 19 08 	or	r2,r25,r0
    b198:	16 00 80 26 	lhi	r20,22;	[0xb000]
    b19c:	3f 08 54 02 	ja	r18,r20,252;	[0xfc] 0xb0fc <tolower>
    b1a0:	ff 00 22 33 	andi	r25,r2,255
    b1a4:	02 08 18 08 	or	r2,r24,r0
    b1a8:	16 00 80 26 	lhi	r20,22;	[0xb000]
    b1ac:	3f 08 54 02 	ja	r18,r20,252;	[0xfc] 0xb0fc <tolower>
    b1b0:	ff 00 02 33 	andi	r24,r2,255
    b1b4:	02 08 19 1b 	bne	r25,r24,b1c0 <strnicmp+0x7c>
    b1b8:	ff 03 5a 03 	addi	r26,r26,-1
    b1bc:	ee 0b 1a 10 	bnei	r26,0,b178 <strnicmp+0x34>
    b1c0:	02 80 19 0b 	sub	r2,r25,r24
    b1c4:	12 00 01 28 	lr32	r18,[r1,r0]
    b1c8:	01 00 c1 22 	ld32	r22,[r1,4]
    b1cc:	02 00 01 23 	ld32	r24,[r1,8]
    b1d0:	03 00 21 23 	ld32	r25,[r1,12]
    b1d4:	04 00 41 23 	ld32	r26,[r1,16]
    b1d8:	05 00 61 23 	ld32	r27,[r1,20]
    b1dc:	18 00 21 00 	addi	r1,r1,24
    b1e0:	00 08 12 00 	ja	r0,r18,0;	[0x0]

0000b1e4 <strcpy>:
    b1e4:	15 08 02 08 	or	r21,r2,r0
    b1e8:	14 18 03 28 	lr8	r20,[r3,r0]
    b1ec:	14 1c 02 28 	sr8	r20,[r2,r0]
    b1f0:	01 00 63 00 	addi	r3,r3,1
    b1f4:	01 00 42 00 	addi	r2,r2,1
    b1f8:	18 10 94 02 	slli	r20,r20,24
    b1fc:	fa 0b 14 10 	bnei	r20,0,b1e8 <strcpy+0x4>
    b200:	02 08 15 08 	or	r2,r21,r0
    b204:	00 08 12 00 	ja	r0,r18,0;	[0x0]

0000b208 <strncpy>:
    b208:	15 08 02 08 	or	r21,r2,r0
    b20c:	ff 03 84 00 	addi	r4,r4,-1
    b210:	06 18 e4 13 	beqi	r4,-1,b22c <strncpy+0x24>
    b214:	14 18 03 28 	lr8	r20,[r3,r0]
    b218:	14 1c 02 28 	sr8	r20,[r2,r0]
    b21c:	01 00 63 00 	addi	r3,r3,1
    b220:	01 00 42 00 	addi	r2,r2,1
    b224:	18 10 94 02 	slli	r20,r20,24
    b228:	f8 0b 14 10 	bnei	r20,0,b20c <strncpy+0x4>
    b22c:	02 08 15 08 	or	r2,r21,r0
    b230:	00 08 12 00 	ja	r0,r18,0;	[0x0]

0000b234 <strcat>:
    b234:	15 08 02 08 	or	r21,r2,r0
    b238:	14 18 15 28 	lr8	r20,[r21,r0]
    b23c:	03 18 14 10 	beqi	r20,0,b24c <strcat+0x18>
    b240:	01 00 42 00 	addi	r2,r2,1
    b244:	14 18 02 28 	lr8	r20,[r2,r0]
    b248:	fd 0b 14 10 	bnei	r20,0,b240 <strcat+0xc>
    b24c:	14 18 03 28 	lr8	r20,[r3,r0]
    b250:	14 1c 02 28 	sr8	r20,[r2,r0]
    b254:	01 00 63 00 	addi	r3,r3,1
    b258:	01 00 42 00 	addi	r2,r2,1
    b25c:	18 10 94 02 	slli	r20,r20,24
    b260:	fa 0b 14 10 	bnei	r20,0,b24c <strcat+0x18>
    b264:	02 08 15 08 	or	r2,r21,r0
    b268:	00 08 12 00 	ja	r0,r18,0;	[0x0]

0000b26c <strncat>:
    b26c:	15 08 02 08 	or	r21,r2,r0
    b270:	0e 18 04 10 	beqi	r4,0,b2ac <strncat+0x40>
    b274:	14 18 15 28 	lr8	r20,[r21,r0]
    b278:	03 18 14 10 	beqi	r20,0,b288 <strncat+0x1c>
    b27c:	01 00 42 00 	addi	r2,r2,1
    b280:	14 18 02 28 	lr8	r20,[r2,r0]
    b284:	fd 0b 14 10 	bnei	r20,0,b27c <strncat+0x10>
    b288:	14 18 03 28 	lr8	r20,[r3,r0]
    b28c:	14 1c 02 28 	sr8	r20,[r2,r0]
    b290:	01 00 63 00 	addi	r3,r3,1
    b294:	01 00 42 00 	addi	r2,r2,1
    b298:	18 10 94 02 	slli	r20,r20,24
    b29c:	03 18 14 10 	beqi	r20,0,b2ac <strncat+0x40>
    b2a0:	ff 03 84 00 	addi	r4,r4,-1
    b2a4:	f8 0b 04 10 	bnei	r4,0,b288 <strncat+0x1c>
    b2a8:	00 1c 02 28 	sr8	r0,[r2,r0]
    b2ac:	02 08 15 08 	or	r2,r21,r0
    b2b0:	00 08 12 00 	ja	r0,r18,0;	[0x0]

0000b2b4 <strcmp>:
    b2b4:	06 08 02 08 	or	r6,r2,r0
    b2b8:	15 18 06 28 	lr8	r21,[r6,r0]
    b2bc:	14 18 03 28 	lr8	r20,[r3,r0]
    b2c0:	14 80 95 0a 	sub	r20,r21,r20
    b2c4:	18 10 94 02 	slli	r20,r20,24
    b2c8:	18 30 54 00 	sari	r2,r20,24
    b2cc:	01 00 63 00 	addi	r3,r3,1
    b2d0:	02 08 02 10 	bnei	r2,0,b2dc <strcmp+0x28>
    b2d4:	01 00 c6 00 	addi	r6,r6,1
    b2d8:	f7 0b 15 10 	bnei	r21,0,b2b8 <strcmp+0x4>
    b2dc:	00 08 12 00 	ja	r0,r18,0;	[0x0]

0000b2e0 <strncmp>:
    b2e0:	14 08 00 08 	or	r20,r0,r0
    b2e4:	01 00 00 14 	j	r0,b2ec <strncmp+0xc>
    b2e8:	ff 03 84 00 	addi	r4,r4,-1
    b2ec:	09 18 04 10 	beqi	r4,0,b314 <strncmp+0x34>
    b2f0:	15 18 02 28 	lr8	r21,[r2,r0]
    b2f4:	14 18 03 28 	lr8	r20,[r3,r0]
    b2f8:	14 80 95 0a 	sub	r20,r21,r20
    b2fc:	18 10 94 02 	slli	r20,r20,24
    b300:	18 30 94 02 	sari	r20,r20,24
    b304:	01 00 63 00 	addi	r3,r3,1
    b308:	02 08 14 10 	bnei	r20,0,b314 <strncmp+0x34>
    b30c:	01 00 42 00 	addi	r2,r2,1
    b310:	f5 0b 15 10 	bnei	r21,0,b2e8 <strncmp+0x8>
    b314:	02 08 14 08 	or	r2,r20,r0
    b318:	00 08 12 00 	ja	r0,r18,0;	[0x0]

0000b31c <strchr>:
    b31c:	15 18 02 28 	lr8	r21,[r2,r0]
    b320:	18 10 83 02 	slli	r20,r3,24
    b324:	18 30 94 02 	sari	r20,r20,24
    b328:	09 18 95 1a 	beq	r21,r20,b350 <strchr+0x34>
    b32c:	18 10 83 02 	slli	r20,r3,24
    b330:	18 30 74 00 	sari	r3,r20,24
    b334:	14 18 02 28 	lr8	r20,[r2,r0]
    b338:	02 08 14 10 	bnei	r20,0,b344 <strchr+0x28>
    b33c:	02 08 00 08 	or	r2,r0,r0
    b340:	03 00 00 14 	j	r0,b350 <strchr+0x34>
    b344:	01 00 42 00 	addi	r2,r2,1
    b348:	14 18 02 28 	lr8	r20,[r2,r0]
    b34c:	f9 0b 74 18 	bne	r20,r3,b334 <strchr+0x18>
    b350:	00 08 12 00 	ja	r0,r18,0;	[0x0]

0000b354 <strrchr>:
    b354:	f4 03 21 00 	addi	r1,r1,-12
    b358:	02 04 21 23 	sd32	r25,[r1,8]
    b35c:	01 04 01 23 	sd32	r24,[r1,4]
    b360:	12 04 01 28 	sr32	r18,[r1,r0]
    b364:	19 08 02 08 	or	r25,r2,r0
    b368:	18 08 03 08 	or	r24,r3,r0
    b36c:	16 00 80 26 	lhi	r20,22;	[0xb000]
    b370:	ea 08 54 02 	ja	r18,r20,936;	[0x3a8] 0xb3a8 <strlen>
    b374:	02 00 59 08 	add	r2,r25,r2
    b378:	18 10 18 03 	slli	r24,r24,24
    b37c:	18 30 18 03 	sari	r24,r24,24
    b380:	14 18 02 28 	lr8	r20,[r2,r0]
    b384:	03 18 14 1b 	beq	r20,r24,b394 <strrchr+0x40>
    b388:	ff 03 42 00 	addi	r2,r2,-1
    b38c:	fc 23 22 1b 	bgeu	r2,r25,b380 <strrchr+0x2c>
    b390:	02 08 00 08 	or	r2,r0,r0
    b394:	12 00 01 28 	lr32	r18,[r1,r0]
    b398:	01 00 01 23 	ld32	r24,[r1,4]
    b39c:	02 00 21 23 	ld32	r25,[r1,8]
    b3a0:	0c 00 21 00 	addi	r1,r1,12
    b3a4:	00 08 12 00 	ja	r0,r18,0;	[0x0]

0000b3a8 <strlen>:
    b3a8:	15 08 02 08 	or	r21,r2,r0
    b3ac:	14 18 15 28 	lr8	r20,[r21,r0]
    b3b0:	03 18 14 10 	beqi	r20,0,b3c0 <strlen+0x18>
    b3b4:	01 00 42 00 	addi	r2,r2,1
    b3b8:	14 18 02 28 	lr8	r20,[r2,r0]
    b3bc:	fd 0b 14 10 	bnei	r20,0,b3b4 <strlen+0xc>
    b3c0:	02 80 a2 0a 	sub	r2,r2,r21
    b3c4:	00 08 12 00 	ja	r0,r18,0;	[0x0]

0000b3c8 <strnlen>:
    b3c8:	15 08 02 08 	or	r21,r2,r0
    b3cc:	ff 03 63 00 	addi	r3,r3,-1
    b3d0:	07 18 e3 13 	beqi	r3,-1,b3f0 <strnlen+0x28>
    b3d4:	14 18 15 28 	lr8	r20,[r21,r0]
    b3d8:	05 18 14 10 	beqi	r20,0,b3f0 <strnlen+0x28>
    b3dc:	01 00 42 00 	addi	r2,r2,1
    b3e0:	ff 03 63 00 	addi	r3,r3,-1
    b3e4:	02 18 e3 13 	beqi	r3,-1,b3f0 <strnlen+0x28>
    b3e8:	14 18 02 28 	lr8	r20,[r2,r0]
    b3ec:	fb 0b 14 10 	bnei	r20,0,b3dc <strnlen+0x14>
    b3f0:	02 80 a2 0a 	sub	r2,r2,r21
    b3f4:	00 08 12 00 	ja	r0,r18,0;	[0x0]

0000b3f8 <strspn>:
    b3f8:	07 08 00 08 	or	r7,r0,r0
    b3fc:	14 18 02 28 	lr8	r20,[r2,r0]
    b400:	0d 18 14 10 	beqi	r20,0,b438 <strspn+0x40>
    b404:	06 08 03 08 	or	r6,r3,r0
    b408:	01 00 00 14 	j	r0,b410 <strspn+0x18>
    b40c:	01 00 c6 00 	addi	r6,r6,1
    b410:	15 18 06 28 	lr8	r21,[r6,r0]
    b414:	08 18 15 10 	beqi	r21,0,b438 <strspn+0x40>
    b418:	14 18 02 28 	lr8	r20,[r2,r0]
    b41c:	fb 0b b4 1a 	bne	r20,r21,b40c <strspn+0x14>
    b420:	14 18 06 28 	lr8	r20,[r6,r0]
    b424:	04 18 14 10 	beqi	r20,0,b438 <strspn+0x40>
    b428:	01 00 e7 00 	addi	r7,r7,1
    b42c:	01 00 42 00 	addi	r2,r2,1
    b430:	14 18 02 28 	lr8	r20,[r2,r0]
    b434:	f3 0b 14 10 	bnei	r20,0,b404 <strspn+0xc>
    b438:	02 08 07 08 	or	r2,r7,r0
    b43c:	00 08 12 00 	ja	r0,r18,0;	[0x0]

0000b440 <strpbrk>:
    b440:	14 18 02 28 	lr8	r20,[r2,r0]
    b444:	0c 18 14 10 	beqi	r20,0,b478 <strpbrk+0x38>
    b448:	15 08 03 08 	or	r21,r3,r0
    b44c:	14 18 15 28 	lr8	r20,[r21,r0]
    b450:	06 18 14 10 	beqi	r20,0,b46c <strpbrk+0x2c>
    b454:	06 18 02 28 	lr8	r6,[r2,r0]
    b458:	14 18 15 28 	lr8	r20,[r21,r0]
    b45c:	07 18 86 1a 	beq	r6,r20,b47c <strpbrk+0x3c>
    b460:	01 00 b5 02 	addi	r21,r21,1
    b464:	14 18 15 28 	lr8	r20,[r21,r0]
    b468:	fb 0b 14 10 	bnei	r20,0,b458 <strpbrk+0x18>
    b46c:	01 00 42 00 	addi	r2,r2,1
    b470:	14 18 02 28 	lr8	r20,[r2,r0]
    b474:	f4 0b 14 10 	bnei	r20,0,b448 <strpbrk+0x8>
    b478:	02 08 00 08 	or	r2,r0,r0
    b47c:	00 08 12 00 	ja	r0,r18,0;	[0x0]

0000b480 <strtok>:
    b480:	f4 03 21 00 	addi	r1,r1,-12
    b484:	02 04 21 23 	sd32	r25,[r1,8]
    b488:	01 04 01 23 	sd32	r24,[r1,4]
    b48c:	12 04 01 28 	sr32	r18,[r1,r0]
    b490:	19 08 03 08 	or	r25,r3,r0
    b494:	18 08 02 08 	or	r24,r2,r0
    b498:	05 08 18 10 	bnei	r24,0,b4b0 <strtok+0x30>
    b49c:	00 80 01 27 	lhi	r24,98304;	[0xc000000]
    b4a0:	70 00 18 23 	ld32	r24,[r24,448]
    b4a4:	02 08 18 10 	bnei	r24,0,b4b0 <strtok+0x30>
    b4a8:	02 08 00 08 	or	r2,r0,r0
    b4ac:	17 00 00 14 	j	r0,b50c <strtok+0x8c>
    b4b0:	02 08 18 08 	or	r2,r24,r0
    b4b4:	03 08 19 08 	or	r3,r25,r0
    b4b8:	16 00 80 26 	lhi	r20,22;	[0xb000]
    b4bc:	fe 08 54 02 	ja	r18,r20,1016;	[0x3f8] 0xb3f8 <strspn>
    b4c0:	18 00 58 08 	add	r24,r24,r2
    b4c4:	14 18 18 28 	lr8	r20,[r24,r0]
    b4c8:	04 08 14 10 	bnei	r20,0,b4dc <strtok+0x5c>
    b4cc:	00 80 61 26 	lhi	r19,98304;	[0xc000000]
    b4d0:	70 04 13 20 	sd32	r0,[r19,448]
    b4d4:	02 08 00 08 	or	r2,r0,r0
    b4d8:	0c 00 00 14 	j	r0,b50c <strtok+0x8c>
    b4dc:	02 08 18 08 	or	r2,r24,r0
    b4e0:	03 08 19 08 	or	r3,r25,r0
    b4e4:	16 00 80 26 	lhi	r20,22;	[0xb000]
    b4e8:	10 09 54 02 	ja	r18,r20,1088;	[0x440] 0xb440 <strpbrk>
    b4ec:	04 18 02 10 	beqi	r2,0,b500 <strtok+0x80>
    b4f0:	14 18 02 28 	lr8	r20,[r2,r0]
    b4f4:	02 18 14 10 	beqi	r20,0,b500 <strtok+0x80>
    b4f8:	00 1c 02 28 	sr8	r0,[r2,r0]
    b4fc:	01 00 42 00 	addi	r2,r2,1
    b500:	00 80 61 26 	lhi	r19,98304;	[0xc000000]
    b504:	70 04 53 20 	sd32	r2,[r19,448]
    b508:	02 08 18 08 	or	r2,r24,r0
    b50c:	12 00 01 28 	lr32	r18,[r1,r0]
    b510:	01 00 01 23 	ld32	r24,[r1,4]
    b514:	02 00 21 23 	ld32	r25,[r1,8]
    b518:	0c 00 21 00 	addi	r1,r1,12
    b51c:	00 08 12 00 	ja	r0,r18,0;	[0x0]

0000b520 <strsep>:
    b520:	f4 03 21 00 	addi	r1,r1,-12
    b524:	02 04 21 23 	sd32	r25,[r1,8]
    b528:	01 04 01 23 	sd32	r24,[r1,4]
    b52c:	12 04 01 28 	sr32	r18,[r1,r0]
    b530:	19 08 02 08 	or	r25,r2,r0
    b534:	18 00 19 28 	lr32	r24,[r25,r0]
    b538:	02 08 18 10 	bnei	r24,0,b544 <strsep+0x24>
    b53c:	02 08 00 08 	or	r2,r0,r0
    b540:	08 00 00 14 	j	r0,b564 <strsep+0x44>
    b544:	02 08 18 08 	or	r2,r24,r0
    b548:	16 00 80 26 	lhi	r20,22;	[0xb000]
    b54c:	10 09 54 02 	ja	r18,r20,1088;	[0x440] 0xb440 <strpbrk>
    b550:	02 18 02 10 	beqi	r2,0,b55c <strsep+0x3c>
    b554:	00 1c 02 28 	sr8	r0,[r2,r0]
    b558:	01 00 42 00 	addi	r2,r2,1
    b55c:	02 04 19 28 	sr32	r2,[r25,r0]
    b560:	02 08 18 08 	or	r2,r24,r0
    b564:	12 00 01 28 	lr32	r18,[r1,r0]
    b568:	01 00 01 23 	ld32	r24,[r1,4]
    b56c:	02 00 21 23 	ld32	r25,[r1,8]
    b570:	0c 00 21 00 	addi	r1,r1,12
    b574:	00 08 12 00 	ja	r0,r18,0;	[0x0]

0000b578 <memset>:
    b578:	14 08 02 08 	or	r20,r2,r0
    b57c:	ff 03 84 00 	addi	r4,r4,-1
    b580:	04 18 e4 13 	beqi	r4,-1,b594 <memset+0x1c>
    b584:	03 1c 14 28 	sr8	r3,[r20,r0]
    b588:	01 00 94 02 	addi	r20,r20,1
    b58c:	ff 03 84 00 	addi	r4,r4,-1
    b590:	fc 0b e4 13 	bnei	r4,-1,b584 <memset+0xc>
    b594:	00 08 12 00 	ja	r0,r18,0;	[0x0]

0000b598 <bcopy>:
    b598:	15 08 03 08 	or	r21,r3,r0
    b59c:	ff 03 84 00 	addi	r4,r4,-1
    b5a0:	06 18 e4 13 	beqi	r4,-1,b5bc <bcopy+0x24>
    b5a4:	14 18 02 28 	lr8	r20,[r2,r0]
    b5a8:	14 1c 15 28 	sr8	r20,[r21,r0]
    b5ac:	01 00 42 00 	addi	r2,r2,1
    b5b0:	01 00 b5 02 	addi	r21,r21,1
    b5b4:	ff 03 84 00 	addi	r4,r4,-1
    b5b8:	fa 0b e4 13 	bnei	r4,-1,b5a4 <bcopy+0xc>
    b5bc:	02 08 03 08 	or	r2,r3,r0
    b5c0:	00 08 12 00 	ja	r0,r18,0;	[0x0]

0000b5c4 <memcpy>:
    b5c4:	15 08 02 08 	or	r21,r2,r0
    b5c8:	ff 03 84 00 	addi	r4,r4,-1
    b5cc:	06 18 e4 13 	beqi	r4,-1,b5e8 <memcpy+0x24>
    b5d0:	14 18 03 28 	lr8	r20,[r3,r0]
    b5d4:	14 1c 15 28 	sr8	r20,[r21,r0]
    b5d8:	01 00 63 00 	addi	r3,r3,1
    b5dc:	01 00 b5 02 	addi	r21,r21,1
    b5e0:	ff 03 84 00 	addi	r4,r4,-1
    b5e4:	fa 0b e4 13 	bnei	r4,-1,b5d0 <memcpy+0xc>
    b5e8:	00 08 12 00 	ja	r0,r18,0;	[0x0]

0000b5ec <memmove>:
    b5ec:	0a 30 43 18 	bltu	r3,r2,b618 <memmove+0x2c>
    b5f0:	15 08 02 08 	or	r21,r2,r0
    b5f4:	ff 03 84 00 	addi	r4,r4,-1
    b5f8:	11 18 e4 13 	beqi	r4,-1,b640 <memmove+0x54>
    b5fc:	14 18 03 28 	lr8	r20,[r3,r0]
    b600:	14 1c 15 28 	sr8	r20,[r21,r0]
    b604:	01 00 63 00 	addi	r3,r3,1
    b608:	01 00 b5 02 	addi	r21,r21,1
    b60c:	ff 03 84 00 	addi	r4,r4,-1
    b610:	fa 0b e4 13 	bnei	r4,-1,b5fc <memmove+0x10>
    b614:	0a 00 00 14 	j	r0,b640 <memmove+0x54>
    b618:	15 00 82 08 	add	r21,r2,r4
    b61c:	03 00 83 08 	add	r3,r3,r4
    b620:	ff 03 84 00 	addi	r4,r4,-1
    b624:	06 18 e4 13 	beqi	r4,-1,b640 <memmove+0x54>
    b628:	ff 03 b5 02 	addi	r21,r21,-1
    b62c:	ff 03 63 00 	addi	r3,r3,-1
    b630:	14 18 03 28 	lr8	r20,[r3,r0]
    b634:	14 1c 15 28 	sr8	r20,[r21,r0]
    b638:	ff 03 84 00 	addi	r4,r4,-1
    b63c:	fa 0b e4 13 	bnei	r4,-1,b628 <memmove+0x3c>
    b640:	00 08 12 00 	ja	r0,r18,0;	[0x0]

0000b644 <memcmp>:
    b644:	15 08 00 08 	or	r21,r0,r0
    b648:	03 00 00 14 	j	r0,b658 <memcmp+0x14>
    b64c:	01 00 42 00 	addi	r2,r2,1
    b650:	01 00 63 00 	addi	r3,r3,1
    b654:	ff 03 84 00 	addi	r4,r4,-1
    b658:	04 18 04 10 	beqi	r4,0,b66c <memcmp+0x28>
    b65c:	15 38 02 28 	lr8u	r21,[r2,r0]
    b660:	14 38 03 28 	lr8u	r20,[r3,r0]
    b664:	15 80 95 0a 	sub	r21,r21,r20
    b668:	f8 1b 15 10 	beqi	r21,0,b64c <memcmp+0x8>
    b66c:	02 08 15 08 	or	r2,r21,r0
    b670:	00 08 12 00 	ja	r0,r18,0;	[0x0]

0000b674 <memscan>:
    b674:	05 18 04 10 	beqi	r4,0,b68c <memscan+0x18>
    b678:	14 38 02 28 	lr8u	r20,[r2,r0]
    b67c:	03 18 74 18 	beq	r20,r3,b68c <memscan+0x18>
    b680:	01 00 42 00 	addi	r2,r2,1
    b684:	ff 03 84 00 	addi	r4,r4,-1
    b688:	fb 0b 04 10 	bnei	r4,0,b678 <memscan+0x4>
    b68c:	00 08 12 00 	ja	r0,r18,0;	[0x0]

0000b690 <strstr>:
    b690:	ec 03 21 00 	addi	r1,r1,-20
    b694:	04 04 61 23 	sd32	r27,[r1,16]
    b698:	03 04 41 23 	sd32	r26,[r1,12]
    b69c:	02 04 21 23 	sd32	r25,[r1,8]
    b6a0:	01 04 01 23 	sd32	r24,[r1,4]
    b6a4:	12 04 01 28 	sr32	r18,[r1,r0]
    b6a8:	19 08 02 08 	or	r25,r2,r0
    b6ac:	1b 08 03 08 	or	r27,r3,r0
    b6b0:	02 08 1b 08 	or	r2,r27,r0
    b6b4:	16 00 80 26 	lhi	r20,22;	[0xb000]
    b6b8:	ea 08 54 02 	ja	r18,r20,936;	[0x3a8] 0xb3a8 <strlen>
    b6bc:	1a 08 02 08 	or	r26,r2,r0
    b6c0:	02 08 1a 10 	bnei	r26,0,b6cc <strstr+0x3c>
    b6c4:	02 08 19 08 	or	r2,r25,r0
    b6c8:	0f 00 00 14 	j	r0,b708 <strstr+0x78>
    b6cc:	02 08 19 08 	or	r2,r25,r0
    b6d0:	16 00 80 26 	lhi	r20,22;	[0xb000]
    b6d4:	ea 08 54 02 	ja	r18,r20,936;	[0x3a8] 0xb3a8 <strlen>
    b6d8:	18 08 02 08 	or	r24,r2,r0
    b6dc:	09 10 58 1b 	blt	r24,r26,b704 <strstr+0x74>
    b6e0:	ff 03 18 03 	addi	r24,r24,-1
    b6e4:	02 08 19 08 	or	r2,r25,r0
    b6e8:	03 08 1b 08 	or	r3,r27,r0
    b6ec:	04 08 1a 08 	or	r4,r26,r0
    b6f0:	16 00 80 26 	lhi	r20,22;	[0xb000]
    b6f4:	91 09 54 02 	ja	r18,r20,1604;	[0x644] 0xb644 <memcmp>
    b6f8:	f2 1b 02 10 	beqi	r2,0,b6c4 <strstr+0x34>
    b6fc:	01 00 39 03 	addi	r25,r25,1
    b700:	f7 03 58 1b 	bge	r24,r26,b6e0 <strstr+0x50>
    b704:	02 08 00 08 	or	r2,r0,r0
    b708:	12 00 01 28 	lr32	r18,[r1,r0]
    b70c:	01 00 01 23 	ld32	r24,[r1,4]
    b710:	02 00 21 23 	ld32	r25,[r1,8]
    b714:	03 00 41 23 	ld32	r26,[r1,12]
    b718:	04 00 61 23 	ld32	r27,[r1,16]
    b71c:	14 00 21 00 	addi	r1,r1,20
    b720:	00 08 12 00 	ja	r0,r18,0;	[0x0]

0000b724 <memchr>:
    b724:	ff 03 84 00 	addi	r4,r4,-1
    b728:	09 18 e4 13 	beqi	r4,-1,b750 <memchr+0x2c>
    b72c:	ff 00 63 30 	andi	r3,r3,255
    b730:	14 18 02 28 	lr8	r20,[r2,r0]
    b734:	01 00 42 00 	addi	r2,r2,1
    b738:	ff 00 94 32 	andi	r20,r20,255
    b73c:	02 08 83 1a 	bne	r3,r20,b748 <memchr+0x24>
    b740:	ff 03 42 00 	addi	r2,r2,-1
    b744:	03 00 00 14 	j	r0,b754 <memchr+0x30>
    b748:	ff 03 84 00 	addi	r4,r4,-1
    b74c:	f8 0b e4 13 	bnei	r4,-1,b730 <memchr+0xc>
    b750:	02 08 00 08 	or	r2,r0,r0
    b754:	00 08 12 00 	ja	r0,r18,0;	[0x0]

0000b758 <do_div>:
    b758:	f0 03 21 00 	addi	r1,r1,-16
    b75c:	03 04 41 23 	sd32	r26,[r1,12]
    b760:	02 04 21 23 	sd32	r25,[r1,8]
    b764:	01 04 01 23 	sd32	r24,[r1,4]
    b768:	12 04 01 28 	sr32	r18,[r1,r0]
    b76c:	18 08 02 08 	or	r24,r2,r0
    b770:	19 08 03 08 	or	r25,r3,r0
    b774:	02 00 18 28 	lr32	r2,[r24,r0]
    b778:	11 00 80 26 	lhi	r20,17;	[0x8800]
    b77c:	69 08 54 02 	ja	r18,r20,420;	[0x1a4] 0x89a4 <__umodsi3>
    b780:	1a 08 02 08 	or	r26,r2,r0
    b784:	02 00 18 28 	lr32	r2,[r24,r0]
    b788:	03 08 19 08 	or	r3,r25,r0
    b78c:	11 00 80 26 	lhi	r20,17;	[0x8800]
    b790:	84 08 54 02 	ja	r18,r20,528;	[0x210] 0x8a10 <__udivsi3>
    b794:	02 04 18 28 	sr32	r2,[r24,r0]
    b798:	02 08 1a 08 	or	r2,r26,r0
    b79c:	12 00 01 28 	lr32	r18,[r1,r0]
    b7a0:	01 00 01 23 	ld32	r24,[r1,4]
    b7a4:	02 00 21 23 	ld32	r25,[r1,8]
    b7a8:	03 00 41 23 	ld32	r26,[r1,12]
    b7ac:	10 00 21 00 	addi	r1,r1,16
    b7b0:	00 08 12 00 	ja	r0,r18,0;	[0x0]

0000b7b4 <simple_strtoul>:
    b7b4:	e8 03 21 00 	addi	r1,r1,-24
    b7b8:	05 04 61 23 	sd32	r27,[r1,20]
    b7bc:	04 04 41 23 	sd32	r26,[r1,16]
    b7c0:	03 04 21 23 	sd32	r25,[r1,12]
    b7c4:	02 04 01 23 	sd32	r24,[r1,8]
    b7c8:	01 04 c1 22 	sd32	r22,[r1,4]
    b7cc:	12 04 01 28 	sr32	r18,[r1,r0]
    b7d0:	18 08 02 08 	or	r24,r2,r0
    b7d4:	16 08 03 08 	or	r22,r3,r0
    b7d8:	19 08 04 08 	or	r25,r4,r0
    b7dc:	1a 08 00 08 	or	r26,r0,r0
    b7e0:	11 08 19 10 	bnei	r25,0,b828 <simple_strtoul+0x74>
    b7e4:	0a 00 20 53 	ori	r25,r0,10;	[0xa]
    b7e8:	15 18 18 28 	lr8	r21,[r24,r0]
    b7ec:	30 00 80 52 	ori	r20,r0,48;	[0x30]
    b7f0:	0d 08 95 1a 	bne	r21,r20,b828 <simple_strtoul+0x74>
    b7f4:	08 00 20 53 	ori	r25,r0,8;	[0x8]
    b7f8:	01 00 18 03 	addi	r24,r24,1
    b7fc:	15 18 18 28 	lr8	r21,[r24,r0]
    b800:	78 00 80 52 	ori	r20,r0,120;	[0x78]
    b804:	08 08 95 1a 	bne	r21,r20,b828 <simple_strtoul+0x74>
    b808:	01 38 b8 22 	ld8u	r21,[r24,1]
    b80c:	4c 00 80 26 	lhi	r20,76;	[0x26000]
    b810:	50 02 94 52 	ori	r20,r20,592;	[0x250] 0x26250 <_ctype>
    b814:	14 18 b4 2a 	lr8	r20,[r20,r21]
    b818:	44 00 94 32 	andi	r20,r20,68
    b81c:	02 18 14 10 	beqi	r20,0,b828 <simple_strtoul+0x74>
    b820:	01 00 18 03 	addi	r24,r24,1
    b824:	10 00 20 53 	ori	r25,r0,16;	[0x10]
    b828:	4c 00 60 27 	lhi	r27,76;	[0x26000]
    b82c:	50 02 7b 53 	ori	r27,r27,592;	[0x250] 0x26250 <_ctype>
    b830:	03 00 00 14 	j	r0,b840 <simple_strtoul+0x8c>
    b834:	14 44 3a 0b 	mulu	r0,r20,r26,r25
    b838:	1a 00 54 08 	add	r26,r20,r2
    b83c:	01 00 18 03 	addi	r24,r24,1
    b840:	14 38 18 28 	lr8u	r20,[r24,r0]
    b844:	15 18 9b 2a 	lr8	r21,[r27,r20]
    b848:	44 00 95 32 	andi	r20,r21,68
    b84c:	0a 18 14 10 	beqi	r20,0,b878 <simple_strtoul+0xc4>
    b850:	04 00 95 32 	andi	r20,r21,4
    b854:	03 18 14 10 	beqi	r20,0,b864 <simple_strtoul+0xb0>
    b858:	14 18 18 28 	lr8	r20,[r24,r0]
    b85c:	d0 03 54 00 	addi	r2,r20,-48
    b860:	04 00 00 14 	j	r0,b874 <simple_strtoul+0xc0>
    b864:	02 18 18 28 	lr8	r2,[r24,r0]
    b868:	16 00 80 26 	lhi	r20,22;	[0xb000]
    b86c:	48 08 54 02 	ja	r18,r20,288;	[0x120] 0xb120 <toupper>
    b870:	c9 03 42 00 	addi	r2,r2,-55
    b874:	ef 33 22 1b 	bltu	r2,r25,b834 <simple_strtoul+0x80>
    b878:	01 18 16 10 	beqi	r22,0,b880 <simple_strtoul+0xcc>
    b87c:	18 04 16 28 	sr32	r24,[r22,r0]
    b880:	02 08 1a 08 	or	r2,r26,r0
    b884:	12 00 01 28 	lr32	r18,[r1,r0]
    b888:	01 00 c1 22 	ld32	r22,[r1,4]
    b88c:	02 00 01 23 	ld32	r24,[r1,8]
    b890:	03 00 21 23 	ld32	r25,[r1,12]
    b894:	04 00 41 23 	ld32	r26,[r1,16]
    b898:	05 00 61 23 	ld32	r27,[r1,20]
    b89c:	18 00 21 00 	addi	r1,r1,24
    b8a0:	00 08 12 00 	ja	r0,r18,0;	[0x0]

0000b8a4 <simple_strtol>:
    b8a4:	fc 03 21 00 	addi	r1,r1,-4
    b8a8:	12 04 01 28 	sr32	r18,[r1,r0]
    b8ac:	06 08 03 08 	or	r6,r3,r0
    b8b0:	07 08 04 08 	or	r7,r4,r0
    b8b4:	15 18 02 28 	lr8	r21,[r2,r0]
    b8b8:	2d 00 80 52 	ori	r20,r0,45;	[0x2d]
    b8bc:	05 08 95 1a 	bne	r21,r20,b8d4 <simple_strtol+0x30>
    b8c0:	01 00 42 00 	addi	r2,r2,1
    b8c4:	16 00 80 26 	lhi	r20,22;	[0xb000]
    b8c8:	ed 09 54 02 	ja	r18,r20,1972;	[0x7b4] 0xb7b4 <simple_strtoul>
    b8cc:	02 80 40 08 	sub	r2,r0,r2
    b8d0:	04 00 00 14 	j	r0,b8e4 <simple_strtol+0x40>
    b8d4:	03 08 06 08 	or	r3,r6,r0
    b8d8:	04 08 07 08 	or	r4,r7,r0
    b8dc:	16 00 80 26 	lhi	r20,22;	[0xb000]
    b8e0:	ed 09 54 02 	ja	r18,r20,1972;	[0x7b4] 0xb7b4 <simple_strtoul>
    b8e4:	12 00 01 28 	lr32	r18,[r1,r0]
    b8e8:	04 00 21 00 	addi	r1,r1,4
    b8ec:	00 08 12 00 	ja	r0,r18,0;	[0x0]

0000b8f0 <simple_strtoull>:
    b8f0:	e0 03 21 00 	addi	r1,r1,-32
    b8f4:	07 04 61 23 	sd32	r27,[r1,28]
    b8f8:	06 04 41 23 	sd32	r26,[r1,24]
    b8fc:	05 04 21 23 	sd32	r25,[r1,20]
    b900:	04 04 01 23 	sd32	r24,[r1,16]
    b904:	03 04 e1 22 	sd32	r23,[r1,12]
    b908:	02 04 c1 22 	sd32	r22,[r1,8]
    b90c:	01 04 01 21 	sd32	r8,[r1,4]
    b910:	12 04 01 28 	sr32	r18,[r1,r0]
    b914:	16 08 02 08 	or	r22,r2,r0
    b918:	08 08 03 08 	or	r8,r3,r0
    b91c:	17 08 04 08 	or	r23,r4,r0
    b920:	1a 08 00 08 	or	r26,r0,r0
    b924:	1b 08 00 08 	or	r27,r0,r0
    b928:	11 08 17 10 	bnei	r23,0,b970 <simple_strtoull+0x80>
    b92c:	0a 00 e0 52 	ori	r23,r0,10;	[0xa]
    b930:	15 18 16 28 	lr8	r21,[r22,r0]
    b934:	30 00 80 52 	ori	r20,r0,48;	[0x30]
    b938:	0d 08 95 1a 	bne	r21,r20,b970 <simple_strtoull+0x80>
    b93c:	08 00 e0 52 	ori	r23,r0,8;	[0x8]
    b940:	01 00 d6 02 	addi	r22,r22,1
    b944:	15 18 16 28 	lr8	r21,[r22,r0]
    b948:	78 00 80 52 	ori	r20,r0,120;	[0x78]
    b94c:	08 08 95 1a 	bne	r21,r20,b970 <simple_strtoull+0x80>
    b950:	01 38 b6 22 	ld8u	r21,[r22,1]
    b954:	4c 00 80 26 	lhi	r20,76;	[0x26000]
    b958:	50 02 94 52 	ori	r20,r20,592;	[0x250] 0x26250 <_ctype>
    b95c:	14 18 b4 2a 	lr8	r20,[r20,r21]
    b960:	44 00 94 32 	andi	r20,r20,68
    b964:	02 18 14 10 	beqi	r20,0,b970 <simple_strtoull+0x80>
    b968:	01 00 d6 02 	addi	r22,r22,1
    b96c:	10 00 e0 52 	ori	r23,r0,16;	[0x10]
    b970:	15 38 16 28 	lr8u	r21,[r22,r0]
    b974:	07 08 15 08 	or	r7,r21,r0
    b978:	4c 00 80 26 	lhi	r20,76;	[0x26000]
    b97c:	50 02 94 52 	ori	r20,r20,592;	[0x250] 0x26250 <_ctype>
    b980:	06 08 14 08 	or	r6,r20,r0
    b984:	14 18 b4 2a 	lr8	r20,[r20,r21]
    b988:	44 00 94 32 	andi	r20,r20,68
    b98c:	2c 18 14 10 	beqi	r20,0,ba40 <simple_strtoull+0x150>
    b990:	18 08 17 08 	or	r24,r23,r0
    b994:	19 08 00 08 	or	r25,r0,r0
    b998:	14 18 e6 28 	lr8	r20,[r6,r7]
    b99c:	04 00 94 32 	andi	r20,r20,4
    b9a0:	03 18 14 10 	beqi	r20,0,b9b0 <simple_strtoull+0xc0>
    b9a4:	14 18 16 28 	lr8	r20,[r22,r0]
    b9a8:	d0 03 54 00 	addi	r2,r20,-48
    b9ac:	0d 00 00 14 	j	r0,b9e4 <simple_strtoull+0xf4>
    b9b0:	15 38 16 28 	lr8u	r21,[r22,r0]
    b9b4:	4c 00 80 26 	lhi	r20,76;	[0x26000]
    b9b8:	50 02 94 52 	ori	r20,r20,592;	[0x250] 0x26250 <_ctype>
    b9bc:	14 18 b4 2a 	lr8	r20,[r20,r21]
    b9c0:	02 00 94 32 	andi	r20,r20,2
    b9c4:	05 18 14 10 	beqi	r20,0,b9dc <simple_strtoull+0xec>
    b9c8:	02 18 16 28 	lr8	r2,[r22,r0]
    b9cc:	16 00 80 26 	lhi	r20,22;	[0xb000]
    b9d0:	48 08 54 02 	ja	r18,r20,288;	[0x120] 0xb120 <toupper>
    b9d4:	c9 03 42 00 	addi	r2,r2,-55
    b9d8:	02 00 00 14 	j	r0,b9e4 <simple_strtoull+0xf4>
    b9dc:	14 18 16 28 	lr8	r20,[r22,r0]
    b9e0:	c9 03 54 00 	addi	r2,r20,-55
    b9e4:	03 08 02 08 	or	r3,r2,r0
    b9e8:	1f 30 82 00 	sari	r4,r2,31
    b9ec:	02 30 24 1b 	bltu	r4,r25,b9f8 <simple_strtoull+0x108>
    b9f0:	13 08 99 18 	bne	r25,r4,ba40 <simple_strtoull+0x150>
    b9f4:	12 20 03 1b 	bgeu	r3,r24,ba40 <simple_strtoull+0x150>
    b9f8:	14 08 17 08 	or	r20,r23,r0
    b9fc:	15 08 00 08 	or	r21,r0,r0
    ba00:	e6 44 9a 0a 	mulu	r7,r6,r26,r20
    ba04:	05 44 ba 0a 	mulu	r0,r5,r26,r21
    ba08:	07 00 a7 08 	add	r7,r7,r5
    ba0c:	14 44 74 0b 	mulu	r0,r20,r20,r27
    ba10:	07 00 87 0a 	add	r7,r7,r20
    ba14:	1a 00 66 08 	add	r26,r6,r3
    ba18:	14 70 da 08 	sltu	r20,r26,r6
    ba1c:	1b 00 87 08 	add	r27,r7,r4
    ba20:	1b 00 9b 0a 	add	r27,r27,r20
    ba24:	01 00 d6 02 	addi	r22,r22,1
    ba28:	07 38 16 28 	lr8u	r7,[r22,r0]
    ba2c:	4c 00 c0 24 	lhi	r6,76;	[0x26000]
    ba30:	50 02 c6 50 	ori	r6,r6,592;	[0x250] 0x26250 <_ctype>
    ba34:	14 18 e6 28 	lr8	r20,[r6,r7]
    ba38:	44 00 94 32 	andi	r20,r20,68
    ba3c:	d4 0b 14 10 	bnei	r20,0,b990 <simple_strtoull+0xa0>
    ba40:	01 18 08 10 	beqi	r8,0,ba48 <simple_strtoull+0x158>
    ba44:	16 04 08 28 	sr32	r22,[r8,r0]
    ba48:	02 08 1a 08 	or	r2,r26,r0
    ba4c:	03 08 1b 08 	or	r3,r27,r0
    ba50:	12 00 01 28 	lr32	r18,[r1,r0]
    ba54:	01 00 01 21 	ld32	r8,[r1,4]
    ba58:	02 00 c1 22 	ld32	r22,[r1,8]
    ba5c:	03 00 e1 22 	ld32	r23,[r1,12]
    ba60:	04 00 01 23 	ld32	r24,[r1,16]
    ba64:	05 00 21 23 	ld32	r25,[r1,20]
    ba68:	06 00 41 23 	ld32	r26,[r1,24]
    ba6c:	07 00 61 23 	ld32	r27,[r1,28]
    ba70:	20 00 21 00 	addi	r1,r1,32
    ba74:	00 08 12 00 	ja	r0,r18,0;	[0x0]

0000ba78 <simple_strtoll>:
    ba78:	fc 03 21 00 	addi	r1,r1,-4
    ba7c:	12 04 01 28 	sr32	r18,[r1,r0]
    ba80:	06 08 03 08 	or	r6,r3,r0
    ba84:	07 08 04 08 	or	r7,r4,r0
    ba88:	15 18 02 28 	lr8	r21,[r2,r0]
    ba8c:	2d 00 80 52 	ori	r20,r0,45;	[0x2d]
    ba90:	08 08 95 1a 	bne	r21,r20,bab4 <simple_strtoll+0x3c>
    ba94:	01 00 42 00 	addi	r2,r2,1
    ba98:	17 00 80 26 	lhi	r20,23;	[0xb800]
    ba9c:	3c 08 54 02 	ja	r18,r20,240;	[0xf0] 0xb8f0 <simple_strtoull>
    baa0:	13 48 02 08 	sne	r19,r2,r0
    baa4:	02 80 40 08 	sub	r2,r0,r2
    baa8:	03 80 60 08 	sub	r3,r0,r3
    baac:	03 80 63 0a 	sub	r3,r3,r19
    bab0:	04 00 00 14 	j	r0,bac4 <simple_strtoll+0x4c>
    bab4:	03 08 06 08 	or	r3,r6,r0
    bab8:	04 08 07 08 	or	r4,r7,r0
    babc:	17 00 80 26 	lhi	r20,23;	[0xb800]
    bac0:	3c 08 54 02 	ja	r18,r20,240;	[0xf0] 0xb8f0 <simple_strtoull>
    bac4:	12 00 01 28 	lr32	r18,[r1,r0]
    bac8:	04 00 21 00 	addi	r1,r1,4
    bacc:	00 08 12 00 	ja	r0,r18,0;	[0x0]

0000bad0 <skip_atoi>:
    bad0:	05 08 00 08 	or	r5,r0,r0
    bad4:	14 00 02 28 	lr32	r20,[r2,r0]
    bad8:	07 08 14 08 	or	r7,r20,r0
    badc:	15 38 14 28 	lr8u	r21,[r20,r0]
    bae0:	4c 00 80 26 	lhi	r20,76;	[0x26000]
    bae4:	50 02 94 52 	ori	r20,r20,592;	[0x250] 0x26250 <_ctype>
    bae8:	04 08 14 08 	or	r4,r20,r0
    baec:	14 18 b4 2a 	lr8	r20,[r20,r21]
    baf0:	04 00 94 32 	andi	r20,r20,4
    baf4:	0d 18 14 10 	beqi	r20,0,bb2c <skip_atoi+0x5c>
    baf8:	0a 00 60 50 	ori	r3,r0,10;	[0xa]
    bafc:	15 44 65 08 	mulu	r0,r21,r5,r3
    bb00:	06 08 07 08 	or	r6,r7,r0
    bb04:	14 18 06 28 	lr8	r20,[r6,r0]
    bb08:	15 00 95 0a 	add	r21,r21,r20
    bb0c:	d0 03 b5 00 	addi	r5,r21,-48
    bb10:	01 00 c6 00 	addi	r6,r6,1
    bb14:	06 04 02 28 	sr32	r6,[r2,r0]
    bb18:	07 08 06 08 	or	r7,r6,r0
    bb1c:	14 38 06 28 	lr8u	r20,[r6,r0]
    bb20:	14 18 84 2a 	lr8	r20,[r4,r20]
    bb24:	04 00 94 32 	andi	r20,r20,4
    bb28:	f4 0b 14 10 	bnei	r20,0,bafc <skip_atoi+0x2c>
    bb2c:	02 08 05 08 	or	r2,r5,r0
    bb30:	00 08 12 00 	ja	r0,r18,0;	[0x0]

0000bb34 <number>:
    bb34:	30 03 21 00 	addi	r1,r1,-208
    bb38:	33 04 61 23 	sd32	r27,[r1,204]
    bb3c:	32 04 41 23 	sd32	r26,[r1,200]
    bb40:	31 04 21 23 	sd32	r25,[r1,196]
    bb44:	30 04 01 23 	sd32	r24,[r1,192]
    bb48:	2f 04 e1 22 	sd32	r23,[r1,188]
    bb4c:	2e 04 c1 22 	sd32	r22,[r1,184]
    bb50:	2d 04 81 21 	sd32	r12,[r1,180]
    bb54:	2c 04 61 21 	sd32	r11,[r1,176]
    bb58:	2b 04 41 21 	sd32	r10,[r1,172]
    bb5c:	2a 04 21 21 	sd32	r9,[r1,168]
    bb60:	29 04 01 21 	sd32	r8,[r1,164]
    bb64:	28 04 41 22 	sd32	r18,[r1,160]
    bb68:	19 08 02 08 	or	r25,r2,r0
    bb6c:	08 08 03 08 	or	r8,r3,r0
    bb70:	26 04 81 20 	sd32	r4,[r1,152]
    bb74:	27 04 a1 20 	sd32	r5,[r1,156]
    bb78:	09 08 06 08 	or	r9,r6,r0
    bb7c:	1a 08 07 08 	or	r26,r7,r0
    bb80:	34 00 e1 22 	ld32	r23,[r1,208]
    bb84:	35 00 c1 22 	ld32	r22,[r1,212]
    bb88:	48 00 41 00 	addi	r2,r1,72
    bb8c:	4c 00 60 24 	lhi	r3,76;	[0x26000]
    bb90:	50 03 63 50 	ori	r3,r3,848;	[0x350] 0x26350 <_ctype+0x100>
    bb94:	25 00 80 50 	ori	r4,r0,37;	[0x25]
    bb98:	16 00 80 26 	lhi	r20,22;	[0xb000]
    bb9c:	71 09 54 02 	ja	r18,r20,1476;	[0x5c4] 0xb5c4 <memcpy>
    bba0:	70 00 01 03 	addi	r24,r1,112
    bba4:	02 08 18 08 	or	r2,r24,r0
    bba8:	4c 00 60 24 	lhi	r3,76;	[0x26000]
    bbac:	78 03 63 50 	ori	r3,r3,888;	[0x378] 0x26378 <_ctype+0x128>
    bbb0:	25 00 80 50 	ori	r4,r0,37;	[0x25]
    bbb4:	16 00 80 26 	lhi	r20,22;	[0xb000]
    bbb8:	71 09 54 02 	ja	r18,r20,1476;	[0x5c4] 0xb5c4 <memcpy>
    bbbc:	40 00 96 32 	andi	r20,r22,64
    bbc0:	02 18 14 10 	beqi	r20,0,bbcc <number+0x98>
    bbc4:	0b 08 18 08 	or	r11,r24,r0
    bbc8:	01 00 00 14 	j	r0,bbd0 <number+0x9c>
    bbcc:	48 00 61 01 	addi	r11,r1,72
    bbd0:	10 00 96 32 	andi	r20,r22,16
    bbd4:	01 18 14 10 	beqi	r20,0,bbdc <number+0xa8>
    bbd8:	fe ff d6 32 	andi	r22,r22,-2
    bbdc:	fe 03 a9 02 	addi	r21,r9,-2
    bbe0:	22 00 80 52 	ori	r20,r0,34;	[0x22]
    bbe4:	02 20 b4 1a 	bgeu	r20,r21,bbf0 <number+0xbc>
    bbe8:	02 08 00 08 	or	r2,r0,r0
    bbec:	86 00 00 14 	j	r0,be08 <number+0x2d4>
    bbf0:	01 00 d6 30 	andi	r6,r22,1
    bbf4:	30 00 a0 52 	ori	r21,r0,48;	[0x30]
    bbf8:	20 00 80 52 	ori	r20,r0,32;	[0x20]
    bbfc:	0c 08 15 08 	or	r12,r21,r0
    bc00:	0c 24 86 0a 	mvz	r12,r6,r20
    bc04:	0a 08 00 08 	or	r10,r0,r0
    bc08:	02 00 96 32 	andi	r20,r22,2
    bc0c:	14 18 14 10 	beqi	r20,0,bc60 <number+0x12c>
    bc10:	27 00 81 22 	ld32	r20,[r1,156]
    bc14:	0a 00 14 10 	bgei	r20,0,bc40 <number+0x10c>
    bc18:	2d 00 40 51 	ori	r10,r0,45;	[0x2d]
    bc1c:	26 00 81 22 	ld32	r20,[r1,152]
    bc20:	27 00 a1 22 	ld32	r21,[r1,156]
    bc24:	13 48 14 08 	sne	r19,r20,r0
    bc28:	14 80 80 0a 	sub	r20,r0,r20
    bc2c:	15 80 a0 0a 	sub	r21,r0,r21
    bc30:	15 80 75 0a 	sub	r21,r21,r19
    bc34:	26 04 81 22 	sd32	r20,[r1,152]
    bc38:	27 04 a1 22 	sd32	r21,[r1,156]
    bc3c:	07 00 00 14 	j	r0,bc5c <number+0x128>
    bc40:	04 00 96 32 	andi	r20,r22,4
    bc44:	02 18 14 10 	beqi	r20,0,bc50 <number+0x11c>
    bc48:	2b 00 40 51 	ori	r10,r0,43;	[0x2b]
    bc4c:	03 00 00 14 	j	r0,bc5c <number+0x128>
    bc50:	08 00 96 32 	andi	r20,r22,8
    bc54:	02 18 14 10 	beqi	r20,0,bc60 <number+0x12c>
    bc58:	20 00 40 51 	ori	r10,r0,32;	[0x20]
    bc5c:	ff 03 5a 03 	addi	r26,r26,-1
    bc60:	20 00 96 32 	andi	r20,r22,32
    bc64:	05 18 14 10 	beqi	r20,0,bc7c <number+0x148>
    bc68:	02 28 09 12 	bneui	r9,16,bc74 <number+0x140>
    bc6c:	fe 03 5a 03 	addi	r26,r26,-2
    bc70:	02 00 00 14 	j	r0,bc7c <number+0x148>
    bc74:	01 08 09 11 	bnei	r9,8,bc7c <number+0x148>
    bc78:	ff 03 5a 03 	addi	r26,r26,-1
    bc7c:	1b 08 00 08 	or	r27,r0,r0
    bc80:	26 00 81 22 	ld32	r20,[r1,152]
    bc84:	27 00 a1 22 	ld32	r21,[r1,156]
    bc88:	14 08 b4 0a 	or	r20,r20,r21
    bc8c:	04 08 14 10 	bnei	r20,0,bca0 <number+0x16c>
    bc90:	30 00 80 52 	ori	r20,r0,48;	[0x30]
    bc94:	14 1c 01 28 	sr8	r20,[r1,r0]
    bc98:	01 00 60 53 	ori	r27,r0,1;	[0x1]
    bc9c:	12 00 00 14 	j	r0,bce8 <number+0x1b4>
    bca0:	26 00 81 22 	ld32	r20,[r1,152]
    bca4:	98 00 a1 02 	addi	r21,r1,152
    bca8:	02 08 15 08 	or	r2,r21,r0
    bcac:	01 00 b5 22 	ld32	r21,[r21,4]
    bcb0:	14 08 b4 0a 	or	r20,r20,r21
    bcb4:	0c 18 14 10 	beqi	r20,0,bce8 <number+0x1b4>
    bcb8:	18 08 1b 08 	or	r24,r27,r0
    bcbc:	01 00 7b 03 	addi	r27,r27,1
    bcc0:	03 08 09 08 	or	r3,r9,r0
    bcc4:	16 00 80 26 	lhi	r20,22;	[0xb000]
    bcc8:	d6 09 54 02 	ja	r18,r20,1880;	[0x758] 0xb758 <do_div>
    bccc:	14 18 4b 28 	lr8	r20,[r11,r2]
    bcd0:	14 1c 01 2b 	sr8	r20,[r1,r24]
    bcd4:	26 00 a1 22 	ld32	r21,[r1,152]
    bcd8:	98 00 41 00 	addi	r2,r1,152
    bcdc:	01 00 82 22 	ld32	r20,[r2,4]
    bce0:	15 08 95 0a 	or	r21,r21,r20
    bce4:	f4 0b 15 10 	bnei	r21,0,bcb8 <number+0x184>
    bce8:	14 40 77 0b 	sge	r20,r23,r27
    bcec:	17 24 74 0b 	mvz	r23,r20,r27
    bcf0:	1a 80 fa 0a 	sub	r26,r26,r23
    bcf4:	11 00 96 32 	andi	r20,r22,17
    bcf8:	0a 08 14 10 	bnei	r20,0,bd24 <number+0x1f0>
    bcfc:	14 08 1a 08 	or	r20,r26,r0
    bd00:	ff 03 5a 03 	addi	r26,r26,-1
    bd04:	07 10 34 10 	blti	r20,1,bd24 <number+0x1f0>
    bd08:	20 00 a0 52 	ori	r21,r0,32;	[0x20]
    bd0c:	01 30 28 1b 	bltu	r8,r25,bd14 <number+0x1e0>
    bd10:	15 1c 19 28 	sr8	r21,[r25,r0]
    bd14:	01 00 39 03 	addi	r25,r25,1
    bd18:	14 08 1a 08 	or	r20,r26,r0
    bd1c:	ff 03 5a 03 	addi	r26,r26,-1
    bd20:	fa 03 34 10 	bgei	r20,1,bd0c <number+0x1d8>
    bd24:	03 18 0a 10 	beqi	r10,0,bd34 <number+0x200>
    bd28:	01 30 28 1b 	bltu	r8,r25,bd30 <number+0x1fc>
    bd2c:	0a 1c 19 28 	sr8	r10,[r25,r0]
    bd30:	01 00 39 03 	addi	r25,r25,1
    bd34:	20 00 96 32 	andi	r20,r22,32
    bd38:	0d 18 14 10 	beqi	r20,0,bd70 <number+0x23c>
    bd3c:	03 08 09 11 	bnei	r9,8,bd4c <number+0x218>
    bd40:	0a 30 28 1b 	bltu	r8,r25,bd6c <number+0x238>
    bd44:	30 00 80 52 	ori	r20,r0,48;	[0x30]
    bd48:	07 00 00 14 	j	r0,bd68 <number+0x234>
    bd4c:	08 28 09 12 	bneui	r9,16,bd70 <number+0x23c>
    bd50:	02 30 28 1b 	bltu	r8,r25,bd5c <number+0x228>
    bd54:	30 00 80 52 	ori	r20,r0,48;	[0x30]
    bd58:	14 1c 19 28 	sr8	r20,[r25,r0]
    bd5c:	01 00 39 03 	addi	r25,r25,1
    bd60:	02 30 28 1b 	bltu	r8,r25,bd6c <number+0x238>
    bd64:	21 18 8b 22 	ld8	r20,[r11,33]
    bd68:	14 1c 19 28 	sr8	r20,[r25,r0]
    bd6c:	01 00 39 03 	addi	r25,r25,1
    bd70:	10 00 96 32 	andi	r20,r22,16
    bd74:	07 08 14 10 	bnei	r20,0,bd94 <number+0x260>
    bd78:	03 00 00 14 	j	r0,bd88 <number+0x254>
    bd7c:	01 30 28 1b 	bltu	r8,r25,bd84 <number+0x250>
    bd80:	0c 1c 19 28 	sr8	r12,[r25,r0]
    bd84:	01 00 39 03 	addi	r25,r25,1
    bd88:	14 08 1a 08 	or	r20,r26,r0
    bd8c:	ff 03 5a 03 	addi	r26,r26,-1
    bd90:	fa 03 34 10 	bgei	r20,1,bd7c <number+0x248>
    bd94:	14 08 17 08 	or	r20,r23,r0
    bd98:	ff 03 f7 02 	addi	r23,r23,-1
    bd9c:	0c 00 9b 1a 	bge	r27,r20,bdd0 <number+0x29c>
    bda0:	30 00 a0 52 	ori	r21,r0,48;	[0x30]
    bda4:	01 30 28 1b 	bltu	r8,r25,bdac <number+0x278>
    bda8:	15 1c 19 28 	sr8	r21,[r25,r0]
    bdac:	01 00 39 03 	addi	r25,r25,1
    bdb0:	14 08 17 08 	or	r20,r23,r0
    bdb4:	ff 03 f7 02 	addi	r23,r23,-1
    bdb8:	fa 13 9b 1a 	blt	r27,r20,bda4 <number+0x270>
    bdbc:	04 00 00 14 	j	r0,bdd0 <number+0x29c>
    bdc0:	02 30 28 1b 	bltu	r8,r25,bdcc <number+0x298>
    bdc4:	14 18 61 2b 	lr8	r20,[r1,r27]
    bdc8:	14 1c 19 28 	sr8	r20,[r25,r0]
    bdcc:	01 00 39 03 	addi	r25,r25,1
    bdd0:	14 08 1b 08 	or	r20,r27,r0
    bdd4:	ff 03 7b 03 	addi	r27,r27,-1
    bdd8:	f9 03 34 10 	bgei	r20,1,bdc0 <number+0x28c>
    bddc:	14 08 1a 08 	or	r20,r26,r0
    bde0:	ff 03 5a 03 	addi	r26,r26,-1
    bde4:	07 10 34 10 	blti	r20,1,be04 <number+0x2d0>
    bde8:	20 00 a0 52 	ori	r21,r0,32;	[0x20]
    bdec:	01 30 28 1b 	bltu	r8,r25,bdf4 <number+0x2c0>
    bdf0:	15 1c 19 28 	sr8	r21,[r25,r0]
    bdf4:	01 00 39 03 	addi	r25,r25,1
    bdf8:	14 08 1a 08 	or	r20,r26,r0
    bdfc:	ff 03 5a 03 	addi	r26,r26,-1
    be00:	fa 03 34 10 	bgei	r20,1,bdec <number+0x2b8>
    be04:	02 08 19 08 	or	r2,r25,r0
    be08:	28 00 41 22 	ld32	r18,[r1,160]
    be0c:	29 00 01 21 	ld32	r8,[r1,164]
    be10:	2a 00 21 21 	ld32	r9,[r1,168]
    be14:	2b 00 41 21 	ld32	r10,[r1,172]
    be18:	2c 00 61 21 	ld32	r11,[r1,176]
    be1c:	2d 00 81 21 	ld32	r12,[r1,180]
    be20:	2e 00 c1 22 	ld32	r22,[r1,184]
    be24:	2f 00 e1 22 	ld32	r23,[r1,188]
    be28:	30 00 01 23 	ld32	r24,[r1,192]
    be2c:	31 00 21 23 	ld32	r25,[r1,196]
    be30:	32 00 41 23 	ld32	r26,[r1,200]
    be34:	33 00 61 23 	ld32	r27,[r1,204]
    be38:	d0 00 21 00 	addi	r1,r1,208
    be3c:	00 08 12 00 	ja	r0,r18,0;	[0x0]

0000be40 <vsnprintf>:
    be40:	d8 03 21 00 	addi	r1,r1,-40
    be44:	09 04 61 23 	sd32	r27,[r1,36]
    be48:	08 04 41 23 	sd32	r26,[r1,32]
    be4c:	07 04 21 23 	sd32	r25,[r1,28]
    be50:	06 04 01 23 	sd32	r24,[r1,24]
    be54:	05 04 e1 22 	sd32	r23,[r1,20]
    be58:	04 04 c1 22 	sd32	r22,[r1,16]
    be5c:	03 04 21 21 	sd32	r9,[r1,12]
    be60:	02 04 01 21 	sd32	r8,[r1,8]
    be64:	01 04 41 22 	sd32	r18,[r1,4]
    be68:	08 08 02 08 	or	r8,r2,r0
    be6c:	09 08 03 08 	or	r9,r3,r0
    be70:	04 04 01 28 	sr32	r4,[r1,r0]
    be74:	1a 08 05 08 	or	r26,r5,r0
    be78:	19 08 08 08 	or	r25,r8,r0
    be7c:	17 00 28 09 	add	r23,r8,r9
    be80:	ff 03 f7 02 	addi	r23,r23,-1
    be84:	ff 03 88 02 	addi	r20,r8,-1
    be88:	03 20 97 1a 	bgeu	r23,r20,be98 <vsnprintf+0x58>
    be8c:	ff ff e0 52 	ori	r23,r0,-1;	[0xffffffff]
    be90:	ff ff 28 61 	xori	r9,r8,-1
    be94:	01 00 29 01 	addi	r9,r9,1
    be98:	14 00 01 28 	lr32	r20,[r1,r0]
    be9c:	15 08 14 08 	or	r21,r20,r0
    bea0:	14 18 14 28 	lr8	r20,[r20,r0]
    bea4:	41 19 14 10 	beqi	r20,0,c3ac <vsnprintf+0x56c>
    bea8:	06 08 15 08 	or	r6,r21,r0
    beac:	15 18 06 28 	lr8	r21,[r6,r0]
    beb0:	25 00 80 52 	ori	r20,r0,37;	[0x25]
    beb4:	03 18 95 1a 	beq	r21,r20,bec4 <vsnprintf+0x84>
    beb8:	03 31 37 1b 	bltu	r23,r25,c2c8 <vsnprintf+0x488>
    bebc:	14 18 06 28 	lr8	r20,[r6,r0]
    bec0:	00 01 00 14 	j	r0,c2c4 <vsnprintf+0x484>
    bec4:	16 08 00 08 	or	r22,r0,r0
    bec8:	14 00 01 28 	lr32	r20,[r1,r0]
    becc:	01 00 94 02 	addi	r20,r20,1
    bed0:	14 04 01 28 	sr32	r20,[r1,r0]
    bed4:	14 18 14 28 	lr8	r20,[r20,r0]
    bed8:	e0 03 94 02 	addi	r20,r20,-32
    bedc:	17 00 a0 26 	lhi	r21,23;	[0xb800]
    bee0:	f4 06 b5 52 	ori	r21,r21,1780;	[0x6f4] 0xbef4 <vsnprintf+0xb4>
    bee4:	12 20 34 12 	bgeui	r20,17,bf30 <vsnprintf+0xf0>
    bee8:	14 38 95 2a 	lr8u	r20,[r21,r20]
    beec:	14 00 b4 0a 	add	r20,r20,r21
    bef0:	00 08 14 00 	ja	r0,r20,0;	[0x0]
    bef4:	24 3c 3c 2c 	.long 0x2c3c3c24
    bef8:	3c 3c 3c 3c 	.long 0x3c3c3c3c
    befc:	3c 3c 3c 1c 	.long 0x1c3c3c3c
    bf00:	3c 14 3c 3c 	.long 0x3c3c143c
    bf04:	34 00 00 00 	addi	r0,r0,52
    bf08:	10 00 d6 52 	ori	r22,r22,16;	[0x10]
    bf0c:	ee ff 1f 14 	j	r0,bec8 <vsnprintf+0x88>
    bf10:	04 00 d6 52 	ori	r22,r22,4;	[0x4]
    bf14:	ec ff 1f 14 	j	r0,bec8 <vsnprintf+0x88>
    bf18:	08 00 d6 52 	ori	r22,r22,8;	[0x8]
    bf1c:	ea ff 1f 14 	j	r0,bec8 <vsnprintf+0x88>
    bf20:	20 00 d6 52 	ori	r22,r22,32;	[0x20]
    bf24:	e8 ff 1f 14 	j	r0,bec8 <vsnprintf+0x88>
    bf28:	01 00 d6 52 	ori	r22,r22,1;	[0x1]
    bf2c:	e6 ff 1f 14 	j	r0,bec8 <vsnprintf+0x88>
    bf30:	ff ff 60 53 	ori	r27,r0,-1;	[0xffffffff]
    bf34:	14 00 01 28 	lr32	r20,[r1,r0]
    bf38:	15 38 14 28 	lr8u	r21,[r20,r0]
    bf3c:	4c 00 80 26 	lhi	r20,76;	[0x26000]
    bf40:	50 02 94 52 	ori	r20,r20,592;	[0x250] 0x26250 <_ctype>
    bf44:	14 18 b4 2a 	lr8	r20,[r20,r21]
    bf48:	04 00 94 32 	andi	r20,r20,4
    bf4c:	05 18 14 10 	beqi	r20,0,bf64 <vsnprintf+0x124>
    bf50:	02 08 01 08 	or	r2,r1,r0
    bf54:	17 00 80 26 	lhi	r20,23;	[0xb800]
    bf58:	b4 08 54 02 	ja	r18,r20,720;	[0x2d0] 0xbad0 <skip_atoi>
    bf5c:	1b 08 02 08 	or	r27,r2,r0
    bf60:	0c 00 00 14 	j	r0,bf94 <vsnprintf+0x154>
    bf64:	06 00 01 28 	lr32	r6,[r1,r0]
    bf68:	15 18 06 28 	lr8	r21,[r6,r0]
    bf6c:	2a 00 80 52 	ori	r20,r0,42;	[0x2a]
    bf70:	08 08 95 1a 	bne	r21,r20,bf94 <vsnprintf+0x154>
    bf74:	01 00 86 02 	addi	r20,r6,1
    bf78:	14 04 01 28 	sr32	r20,[r1,r0]
    bf7c:	14 08 1a 08 	or	r20,r26,r0
    bf80:	04 00 5a 03 	addi	r26,r26,4
    bf84:	1b 00 14 28 	lr32	r27,[r20,r0]
    bf88:	02 00 1b 10 	bgei	r27,0,bf94 <vsnprintf+0x154>
    bf8c:	1b 80 60 0b 	sub	r27,r0,r27
    bf90:	10 00 d6 52 	ori	r22,r22,16;	[0x10]
    bf94:	ff ff 60 50 	ori	r3,r0,-1;	[0xffffffff]
    bf98:	06 00 01 28 	lr32	r6,[r1,r0]
    bf9c:	15 18 06 28 	lr8	r21,[r6,r0]
    bfa0:	2e 00 80 52 	ori	r20,r0,46;	[0x2e]
    bfa4:	18 08 95 1a 	bne	r21,r20,c008 <vsnprintf+0x1c8>
    bfa8:	01 00 86 02 	addi	r20,r6,1
    bfac:	14 04 01 28 	sr32	r20,[r1,r0]
    bfb0:	15 38 14 28 	lr8u	r21,[r20,r0]
    bfb4:	4c 00 80 26 	lhi	r20,76;	[0x26000]
    bfb8:	50 02 94 52 	ori	r20,r20,592;	[0x250] 0x26250 <_ctype>
    bfbc:	14 18 b4 2a 	lr8	r20,[r20,r21]
    bfc0:	04 00 94 32 	andi	r20,r20,4
    bfc4:	05 18 14 10 	beqi	r20,0,bfdc <vsnprintf+0x19c>
    bfc8:	02 08 01 08 	or	r2,r1,r0
    bfcc:	17 00 80 26 	lhi	r20,23;	[0xb800]
    bfd0:	b4 08 54 02 	ja	r18,r20,720;	[0x2d0] 0xbad0 <skip_atoi>
    bfd4:	03 08 02 08 	or	r3,r2,r0
    bfd8:	09 00 00 14 	j	r0,c000 <vsnprintf+0x1c0>
    bfdc:	06 00 01 28 	lr32	r6,[r1,r0]
    bfe0:	15 18 06 28 	lr8	r21,[r6,r0]
    bfe4:	2a 00 80 52 	ori	r20,r0,42;	[0x2a]
    bfe8:	05 08 95 1a 	bne	r21,r20,c000 <vsnprintf+0x1c0>
    bfec:	01 00 86 02 	addi	r20,r6,1
    bff0:	14 04 01 28 	sr32	r20,[r1,r0]
    bff4:	14 08 1a 08 	or	r20,r26,r0
    bff8:	04 00 5a 03 	addi	r26,r26,4
    bffc:	03 00 14 28 	lr32	r3,[r20,r0]
    c000:	14 40 03 08 	sge	r20,r3,r0
    c004:	03 24 14 08 	mvz	r3,r20,r0
    c008:	ff ff a0 50 	ori	r5,r0,-1;	[0xffffffff]
    c00c:	14 00 01 28 	lr32	r20,[r1,r0]
    c010:	06 18 14 28 	lr8	r6,[r20,r0]
    c014:	68 00 a0 52 	ori	r21,r0,104;	[0x68]
    c018:	15 58 a6 0a 	seq	r21,r6,r21
    c01c:	6c 00 80 52 	ori	r20,r0,108;	[0x6c]
    c020:	14 58 86 0a 	seq	r20,r6,r20
    c024:	15 08 95 0a 	or	r21,r21,r20
    c028:	04 08 15 10 	bnei	r21,0,c03c <vsnprintf+0x1fc>
    c02c:	4c 00 80 52 	ori	r20,r0,76;	[0x4c]
    c030:	02 18 86 1a 	beq	r6,r20,c03c <vsnprintf+0x1fc>
    c034:	5a 00 80 52 	ori	r20,r0,90;	[0x5a]
    c038:	04 08 86 1a 	bne	r6,r20,c04c <vsnprintf+0x20c>
    c03c:	14 00 01 28 	lr32	r20,[r1,r0]
    c040:	05 18 14 28 	lr8	r5,[r20,r0]
    c044:	01 00 94 02 	addi	r20,r20,1
    c048:	14 04 01 28 	sr32	r20,[r1,r0]
    c04c:	0a 00 c0 50 	ori	r6,r0,10;	[0xa]
    c050:	14 00 01 28 	lr32	r20,[r1,r0]
    c054:	14 18 14 28 	lr8	r20,[r20,r0]
    c058:	53 00 a0 52 	ori	r21,r0,83;	[0x53]
    c05c:	db 03 94 02 	addi	r20,r20,-37
    c060:	18 00 e0 24 	lhi	r7,24;	[0xc000]
    c064:	78 00 e7 50 	ori	r7,r7,120;	[0x78] 0xc078 <vsnprintf+0x238>
    c068:	8d 30 95 1a 	bltu	r21,r20,c2a0 <vsnprintf+0x460>
    c06c:	14 68 87 2a 	lx16u	r20,[r7,r20]
    c070:	14 00 f4 08 	add	r20,r20,r7
    c074:	00 08 14 00 	ja	r0,r20,0;	[0x0]
    c078:	00 02 28 02 	addi	r17,r8,-512
    c07c:	28 02 28 02 	addi	r17,r8,-472
    c080:	28 02 28 02 	addi	r17,r8,-472
    c084:	28 02 28 02 	addi	r17,r8,-472
    c088:	28 02 28 02 	addi	r17,r8,-472
    c08c:	28 02 28 02 	addi	r17,r8,-472
    c090:	28 02 28 02 	addi	r17,r8,-472
    c094:	28 02 28 02 	addi	r17,r8,-472
    c098:	28 02 28 02 	addi	r17,r8,-472
    c09c:	28 02 28 02 	addi	r17,r8,-472
    c0a0:	28 02 28 02 	addi	r17,r8,-472
    c0a4:	28 02 28 02 	addi	r17,r8,-472
    c0a8:	28 02 28 02 	addi	r17,r8,-472
    c0ac:	28 02 28 02 	addi	r17,r8,-472
    c0b0:	28 02 28 02 	addi	r17,r8,-472
    c0b4:	28 02 28 02 	addi	r17,r8,-472
    c0b8:	28 02 28 02 	addi	r17,r8,-472
    c0bc:	28 02 28 02 	addi	r17,r8,-472
    c0c0:	28 02 28 02 	addi	r17,r8,-472
    c0c4:	28 02 28 02 	addi	r17,r8,-472
    c0c8:	28 02 28 02 	addi	r17,r8,-472
    c0cc:	28 02 28 02 	addi	r17,r8,-472
    c0d0:	28 02 28 02 	addi	r17,r8,-472
    c0d4:	28 02 28 02 	addi	r17,r8,-472
    c0d8:	28 02 28 02 	addi	r17,r8,-472
    c0dc:	28 02 14 02 	addi	r16,r20,-472
    c0e0:	28 02 28 02 	addi	r17,r8,-472
    c0e4:	28 02 28 02 	addi	r17,r8,-472
    c0e8:	28 02 28 02 	addi	r17,r8,-472
    c0ec:	28 02 28 02 	addi	r17,r8,-472
    c0f0:	28 02 28 02 	addi	r17,r8,-472
    c0f4:	a8 00 20 02 	addi	r17,r0,168
    c0f8:	28 02 28 02 	addi	r17,r8,-472
    c0fc:	28 02 28 02 	addi	r17,r8,-472
    c100:	20 02 28 02 	addi	r17,r8,-480
    c104:	28 02 28 02 	addi	r17,r8,-472
    c108:	28 02 e8 01 	addi	r15,r8,-472
    c10c:	0c 02 b0 01 	addi	r13,r16,-500
    c110:	28 02 28 02 	addi	r17,r8,-472
    c114:	0c 01 28 02 	addi	r17,r8,268
    c118:	68 02 28 02 	addi	r17,r8,-408
    c11c:	28 02 18 02 	addi	r16,r24,-472
    c120:	10 00 96 32 	andi	r20,r22,16
    c124:	08 08 14 10 	bnei	r20,0,c148 <vsnprintf+0x308>
    c128:	ff 03 7b 03 	addi	r27,r27,-1
    c12c:	06 10 3b 10 	blti	r27,1,c148 <vsnprintf+0x308>
    c130:	20 00 80 52 	ori	r20,r0,32;	[0x20]
    c134:	01 30 37 1b 	bltu	r23,r25,c13c <vsnprintf+0x2fc>
    c138:	14 1c 19 28 	sr8	r20,[r25,r0]
    c13c:	01 00 39 03 	addi	r25,r25,1
    c140:	ff 03 7b 03 	addi	r27,r27,-1
    c144:	fb 03 3b 10 	bgei	r27,1,c134 <vsnprintf+0x2f4>
    c148:	14 08 1a 08 	or	r20,r26,r0
    c14c:	04 00 5a 03 	addi	r26,r26,4
    c150:	14 18 14 28 	lr8	r20,[r20,r0]
    c154:	01 30 37 1b 	bltu	r23,r25,c15c <vsnprintf+0x31c>
    c158:	14 1c 19 28 	sr8	r20,[r25,r0]
    c15c:	01 00 39 03 	addi	r25,r25,1
    c160:	ff 03 7b 03 	addi	r27,r27,-1
    c164:	8b 10 3b 10 	blti	r27,1,c394 <vsnprintf+0x554>
    c168:	20 00 80 52 	ori	r20,r0,32;	[0x20]
    c16c:	01 30 37 1b 	bltu	r23,r25,c174 <vsnprintf+0x334>
    c170:	14 1c 19 28 	sr8	r20,[r25,r0]
    c174:	01 00 39 03 	addi	r25,r25,1
    c178:	ff 03 7b 03 	addi	r27,r27,-1
    c17c:	fb 03 3b 10 	bgei	r27,1,c16c <vsnprintf+0x32c>
    c180:	84 00 00 14 	j	r0,c394 <vsnprintf+0x554>
    c184:	14 08 1a 08 	or	r20,r26,r0
    c188:	04 00 5a 03 	addi	r26,r26,4
    c18c:	18 00 14 28 	lr32	r24,[r20,r0]
    c190:	4c 00 80 26 	lhi	r20,76;	[0x26000]
    c194:	a0 03 94 52 	ori	r20,r20,928;	[0x3a0] 0x263a0 <_ctype+0x150>
    c198:	18 24 98 0a 	mvz	r24,r24,r20
    c19c:	02 08 18 08 	or	r2,r24,r0
    c1a0:	16 00 80 26 	lhi	r20,22;	[0xb000]
    c1a4:	f2 08 54 02 	ja	r18,r20,968;	[0x3c8] 0xb3c8 <strnlen>
    c1a8:	10 00 96 32 	andi	r20,r22,16
    c1ac:	0a 08 14 10 	bnei	r20,0,c1d8 <vsnprintf+0x398>
    c1b0:	14 08 1b 08 	or	r20,r27,r0
    c1b4:	ff 03 7b 03 	addi	r27,r27,-1
    c1b8:	07 00 82 1a 	bge	r2,r20,c1d8 <vsnprintf+0x398>
    c1bc:	20 00 a0 52 	ori	r21,r0,32;	[0x20]
    c1c0:	01 30 37 1b 	bltu	r23,r25,c1c8 <vsnprintf+0x388>
    c1c4:	15 1c 19 28 	sr8	r21,[r25,r0]
    c1c8:	01 00 39 03 	addi	r25,r25,1
    c1cc:	14 08 1b 08 	or	r20,r27,r0
    c1d0:	ff 03 7b 03 	addi	r27,r27,-1
    c1d4:	fa 13 82 1a 	blt	r2,r20,c1c0 <vsnprintf+0x380>
    c1d8:	15 08 00 08 	or	r21,r0,r0
    c1dc:	07 00 55 18 	bge	r21,r2,c1fc <vsnprintf+0x3bc>
    c1e0:	02 30 37 1b 	bltu	r23,r25,c1ec <vsnprintf+0x3ac>
    c1e4:	14 18 18 28 	lr8	r20,[r24,r0]
    c1e8:	14 1c 19 28 	sr8	r20,[r25,r0]
    c1ec:	01 00 39 03 	addi	r25,r25,1
    c1f0:	01 00 18 03 	addi	r24,r24,1
    c1f4:	01 00 b5 02 	addi	r21,r21,1
    c1f8:	f9 13 55 18 	blt	r21,r2,c1e0 <vsnprintf+0x3a0>
    c1fc:	14 08 1b 08 	or	r20,r27,r0
    c200:	ff 03 7b 03 	addi	r27,r27,-1
    c204:	63 00 82 1a 	bge	r2,r20,c394 <vsnprintf+0x554>
    c208:	20 00 a0 52 	ori	r21,r0,32;	[0x20]
    c20c:	01 30 37 1b 	bltu	r23,r25,c214 <vsnprintf+0x3d4>
    c210:	15 1c 19 28 	sr8	r21,[r25,r0]
    c214:	01 00 39 03 	addi	r25,r25,1
    c218:	14 08 1b 08 	or	r20,r27,r0
    c21c:	ff 03 7b 03 	addi	r27,r27,-1
    c220:	fa 13 82 1a 	blt	r2,r20,c20c <vsnprintf+0x3cc>
    c224:	5b 00 00 14 	j	r0,c394 <vsnprintf+0x554>
    c228:	02 08 fb 13 	bnei	r27,-1,c234 <vsnprintf+0x3f4>
    c22c:	08 00 60 53 	ori	r27,r0,8;	[0x8]
    c230:	01 00 d6 52 	ori	r22,r22,1;	[0x1]
    c234:	f8 03 21 00 	addi	r1,r1,-8
    c238:	14 08 1a 08 	or	r20,r26,r0
    c23c:	04 00 5a 03 	addi	r26,r26,4
    c240:	04 00 14 28 	lr32	r4,[r20,r0]
    c244:	05 08 00 08 	or	r5,r0,r0
    c248:	03 04 01 28 	sr32	r3,[r1,r0]
    c24c:	01 04 c1 22 	sd32	r22,[r1,4]
    c250:	02 08 19 08 	or	r2,r25,r0
    c254:	03 08 17 08 	or	r3,r23,r0
    c258:	10 00 c0 50 	ori	r6,r0,16;	[0x10]
    c25c:	48 00 00 14 	j	r0,c380 <vsnprintf+0x540>
    c260:	14 08 1a 08 	or	r20,r26,r0
    c264:	04 00 5a 03 	addi	r26,r26,4
    c268:	15 00 14 28 	lr32	r21,[r20,r0]
    c26c:	14 80 19 09 	sub	r20,r25,r8
    c270:	14 04 15 28 	sr32	r20,[r21,r0]
    c274:	47 00 00 14 	j	r0,c394 <vsnprintf+0x554>
    c278:	13 30 37 1b 	bltu	r23,r25,c2c8 <vsnprintf+0x488>
    c27c:	25 00 80 52 	ori	r20,r0,37;	[0x25]
    c280:	10 00 00 14 	j	r0,c2c4 <vsnprintf+0x484>
    c284:	08 00 c0 50 	ori	r6,r0,8;	[0x8]
    c288:	15 00 00 14 	j	r0,c2e0 <vsnprintf+0x4a0>
    c28c:	40 00 d6 52 	ori	r22,r22,64;	[0x40]
    c290:	10 00 c0 50 	ori	r6,r0,16;	[0x10]
    c294:	12 00 00 14 	j	r0,c2e0 <vsnprintf+0x4a0>
    c298:	02 00 d6 52 	ori	r22,r22,2;	[0x2]
    c29c:	10 00 00 14 	j	r0,c2e0 <vsnprintf+0x4a0>
    c2a0:	02 30 37 1b 	bltu	r23,r25,c2ac <vsnprintf+0x46c>
    c2a4:	25 00 80 52 	ori	r20,r0,37;	[0x25]
    c2a8:	14 1c 19 28 	sr8	r20,[r25,r0]
    c2ac:	01 00 39 03 	addi	r25,r25,1
    c2b0:	15 00 01 28 	lr32	r21,[r1,r0]
    c2b4:	14 18 15 28 	lr8	r20,[r21,r0]
    c2b8:	05 18 14 10 	beqi	r20,0,c2d0 <vsnprintf+0x490>
    c2bc:	02 30 37 1b 	bltu	r23,r25,c2c8 <vsnprintf+0x488>
    c2c0:	14 18 15 28 	lr8	r20,[r21,r0]
    c2c4:	14 1c 19 28 	sr8	r20,[r25,r0]
    c2c8:	01 00 39 03 	addi	r25,r25,1
    c2cc:	31 00 00 14 	j	r0,c394 <vsnprintf+0x554>
    c2d0:	14 00 01 28 	lr32	r20,[r1,r0]
    c2d4:	ff 03 94 02 	addi	r20,r20,-1
    c2d8:	14 04 01 28 	sr32	r20,[r1,r0]
    c2dc:	2d 00 00 14 	j	r0,c394 <vsnprintf+0x554>
    c2e0:	4c 00 80 52 	ori	r20,r0,76;	[0x4c]
    c2e4:	05 08 85 1a 	bne	r5,r20,c2fc <vsnprintf+0x4bc>
    c2e8:	14 08 1a 08 	or	r20,r26,r0
    c2ec:	08 00 5a 03 	addi	r26,r26,8
    c2f0:	04 00 14 28 	lr32	r4,[r20,r0]
    c2f4:	01 00 b4 20 	ld32	r5,[r20,4]
    c2f8:	1c 00 00 14 	j	r0,c36c <vsnprintf+0x52c>
    c2fc:	6c 00 80 52 	ori	r20,r0,108;	[0x6c]
    c300:	12 18 85 1a 	beq	r5,r20,c34c <vsnprintf+0x50c>
    c304:	5a 00 80 52 	ori	r20,r0,90;	[0x5a]
    c308:	05 08 85 1a 	bne	r5,r20,c320 <vsnprintf+0x4e0>
    c30c:	14 08 1a 08 	or	r20,r26,r0
    c310:	04 00 5a 03 	addi	r26,r26,4
    c314:	04 00 14 28 	lr32	r4,[r20,r0]
    c318:	05 08 00 08 	or	r5,r0,r0
    c31c:	13 00 00 14 	j	r0,c36c <vsnprintf+0x52c>
    c320:	68 00 80 52 	ori	r20,r0,104;	[0x68]
    c324:	09 08 85 1a 	bne	r5,r20,c34c <vsnprintf+0x50c>
    c328:	14 08 1a 08 	or	r20,r26,r0
    c32c:	04 00 5a 03 	addi	r26,r26,4
    c330:	04 28 14 28 	lr16u	r4,[r20,r0]
    c334:	05 08 00 08 	or	r5,r0,r0
    c338:	02 00 96 32 	andi	r20,r22,2
    c33c:	0b 18 14 10 	beqi	r20,0,c36c <vsnprintf+0x52c>
    c340:	10 10 84 02 	slli	r20,r4,16
    c344:	10 30 94 00 	sari	r4,r20,16
    c348:	07 00 00 14 	j	r0,c368 <vsnprintf+0x528>
    c34c:	14 08 1a 08 	or	r20,r26,r0
    c350:	04 00 5a 03 	addi	r26,r26,4
    c354:	04 00 14 28 	lr32	r4,[r20,r0]
    c358:	05 08 00 08 	or	r5,r0,r0
    c35c:	02 00 96 32 	andi	r20,r22,2
    c360:	02 18 14 10 	beqi	r20,0,c36c <vsnprintf+0x52c>
    c364:	14 08 04 08 	or	r20,r4,r0
    c368:	1f 30 b4 00 	sari	r5,r20,31
    c36c:	f8 03 21 00 	addi	r1,r1,-8
    c370:	03 04 01 28 	sr32	r3,[r1,r0]
    c374:	01 04 c1 22 	sd32	r22,[r1,4]
    c378:	02 08 19 08 	or	r2,r25,r0
    c37c:	03 08 17 08 	or	r3,r23,r0
    c380:	07 08 1b 08 	or	r7,r27,r0
    c384:	17 00 80 26 	lhi	r20,23;	[0xb800]
    c388:	cd 08 54 02 	ja	r18,r20,820;	[0x334] 0xbb34 <number>
    c38c:	19 08 02 08 	or	r25,r2,r0
    c390:	08 00 21 00 	addi	r1,r1,8
    c394:	14 00 01 28 	lr32	r20,[r1,r0]
    c398:	01 00 94 02 	addi	r20,r20,1
    c39c:	14 04 01 28 	sr32	r20,[r1,r0]
    c3a0:	15 08 14 08 	or	r21,r20,r0
    c3a4:	14 18 15 28 	lr8	r20,[r21,r0]
    c3a8:	bf 0a 14 10 	bnei	r20,0,bea8 <vsnprintf+0x68>
    c3ac:	02 30 37 1b 	bltu	r23,r25,c3b8 <vsnprintf+0x578>
    c3b0:	00 1c 19 28 	sr8	r0,[r25,r0]
    c3b4:	02 00 00 14 	j	r0,c3c0 <vsnprintf+0x580>
    c3b8:	01 18 09 10 	beqi	r9,0,c3c0 <vsnprintf+0x580>
    c3bc:	00 1c 17 28 	sr8	r0,[r23,r0]
    c3c0:	02 80 19 09 	sub	r2,r25,r8
    c3c4:	01 00 41 22 	ld32	r18,[r1,4]
    c3c8:	02 00 01 21 	ld32	r8,[r1,8]
    c3cc:	03 00 21 21 	ld32	r9,[r1,12]
    c3d0:	04 00 c1 22 	ld32	r22,[r1,16]
    c3d4:	05 00 e1 22 	ld32	r23,[r1,20]
    c3d8:	06 00 01 23 	ld32	r24,[r1,24]
    c3dc:	07 00 21 23 	ld32	r25,[r1,28]
    c3e0:	08 00 41 23 	ld32	r26,[r1,32]
    c3e4:	09 00 61 23 	ld32	r27,[r1,36]
    c3e8:	28 00 21 00 	addi	r1,r1,40
    c3ec:	00 08 12 00 	ja	r0,r18,0;	[0x0]

0000c3f0 <snprintf>:
    c3f0:	f0 03 21 00 	addi	r1,r1,-16
    c3f4:	03 04 e1 20 	sd32	r7,[r1,12]
    c3f8:	02 04 c1 20 	sd32	r6,[r1,8]
    c3fc:	01 04 a1 20 	sd32	r5,[r1,4]
    c400:	12 04 01 28 	sr32	r18,[r1,r0]
    c404:	04 00 81 02 	addi	r20,r1,4
    c408:	05 08 14 08 	or	r5,r20,r0
    c40c:	17 00 80 26 	lhi	r20,23;	[0xb800]
    c410:	90 09 54 02 	ja	r18,r20,1600;	[0x640] 0xbe40 <vsnprintf>
    c414:	12 00 01 28 	lr32	r18,[r1,r0]
    c418:	10 00 21 00 	addi	r1,r1,16
    c41c:	00 08 12 00 	ja	r0,r18,0;	[0x0]

0000c420 <vsprintf>:
    c420:	fc 03 21 00 	addi	r1,r1,-4
    c424:	12 04 01 28 	sr32	r18,[r1,r0]
    c428:	14 08 03 08 	or	r20,r3,r0
    c42c:	05 08 04 08 	or	r5,r4,r0
    c430:	ff ff 60 50 	ori	r3,r0,-1;	[0xffffffff]
    c434:	04 08 14 08 	or	r4,r20,r0
    c438:	17 00 80 26 	lhi	r20,23;	[0xb800]
    c43c:	90 09 54 02 	ja	r18,r20,1600;	[0x640] 0xbe40 <vsnprintf>
    c440:	12 00 01 28 	lr32	r18,[r1,r0]
    c444:	04 00 21 00 	addi	r1,r1,4
    c448:	00 08 12 00 	ja	r0,r18,0;	[0x0]

0000c44c <sprintf>:
    c44c:	ec 03 21 00 	addi	r1,r1,-20
    c450:	04 04 e1 20 	sd32	r7,[r1,16]
    c454:	03 04 c1 20 	sd32	r6,[r1,12]
    c458:	02 04 a1 20 	sd32	r5,[r1,8]
    c45c:	01 04 81 20 	sd32	r4,[r1,4]
    c460:	12 04 01 28 	sr32	r18,[r1,r0]
    c464:	04 00 81 02 	addi	r20,r1,4
    c468:	04 08 14 08 	or	r4,r20,r0
    c46c:	18 00 80 26 	lhi	r20,24;	[0xc000]
    c470:	08 09 54 02 	ja	r18,r20,1056;	[0x420] 0xc420 <vsprintf>
    c474:	03 00 40 50 	ori	r2,r0,3;	[0x3]
    c478:	12 00 01 28 	lr32	r18,[r1,r0]
    c47c:	14 00 21 00 	addi	r1,r1,20
    c480:	00 08 12 00 	ja	r0,r18,0;	[0x0]

0000c484 <sio_printf>:
    c484:	68 03 21 00 	addi	r1,r1,-152
    c488:	25 04 e1 20 	sd32	r7,[r1,148]
    c48c:	24 04 c1 20 	sd32	r6,[r1,144]
    c490:	23 04 a1 20 	sd32	r5,[r1,140]
    c494:	22 04 81 20 	sd32	r4,[r1,136]
    c498:	21 04 61 20 	sd32	r3,[r1,132]
    c49c:	20 04 41 22 	sd32	r18,[r1,128]
    c4a0:	03 08 02 08 	or	r3,r2,r0
    c4a4:	02 08 01 08 	or	r2,r1,r0
    c4a8:	84 00 81 02 	addi	r20,r1,132
    c4ac:	04 08 14 08 	or	r4,r20,r0
    c4b0:	18 00 80 26 	lhi	r20,24;	[0xc000]
    c4b4:	08 09 54 02 	ja	r18,r20,1056;	[0x420] 0xc420 <vsprintf>
    c4b8:	02 08 01 08 	or	r2,r1,r0
    c4bc:	12 00 80 26 	lhi	r20,18;	[0x9000]
    c4c0:	ab 08 54 02 	ja	r18,r20,684;	[0x2ac] 0x92ac <print_string>
    c4c4:	03 00 40 50 	ori	r2,r0,3;	[0x3]
    c4c8:	20 00 41 22 	ld32	r18,[r1,128]
    c4cc:	98 00 21 00 	addi	r1,r1,152
    c4d0:	00 08 12 00 	ja	r0,r18,0;	[0x0]

0000c4d4 <int_null>:
    c4d4:	00 04 02 28 	sr32	r0,[r2,r0]
    c4d8:	01 04 02 20 	sd32	r0,[r2,4]
    c4dc:	02 04 02 20 	sd32	r0,[r2,8]
    c4e0:	03 04 02 20 	sd32	r0,[r2,12]
    c4e4:	04 04 02 20 	sd32	r0,[r2,16]
    c4e8:	05 04 02 20 	sd32	r0,[r2,20]
    c4ec:	06 04 02 20 	sd32	r0,[r2,24]
    c4f0:	00 08 12 00 	ja	r0,r18,0;	[0x0]

0000c4f4 <int_copy>:
    c4f4:	14 00 02 28 	lr32	r20,[r2,r0]
    c4f8:	14 04 03 28 	sr32	r20,[r3,r0]
    c4fc:	01 00 82 22 	ld32	r20,[r2,4]
    c500:	01 04 83 22 	sd32	r20,[r3,4]
    c504:	02 00 82 22 	ld32	r20,[r2,8]
    c508:	02 04 83 22 	sd32	r20,[r3,8]
    c50c:	03 00 82 22 	ld32	r20,[r2,12]
    c510:	03 04 83 22 	sd32	r20,[r3,12]
    c514:	04 00 82 22 	ld32	r20,[r2,16]
    c518:	04 04 83 22 	sd32	r20,[r3,16]
    c51c:	05 00 82 22 	ld32	r20,[r2,20]
    c520:	05 04 83 22 	sd32	r20,[r3,20]
    c524:	06 00 82 22 	ld32	r20,[r2,24]
    c528:	06 04 83 22 	sd32	r20,[r3,24]
    c52c:	00 08 12 00 	ja	r0,r18,0;	[0x0]

0000c530 <bigint_to_char>:
    c530:	07 08 00 08 	or	r7,r0,r0
    c534:	04 00 42 00 	addi	r2,r2,4
    c538:	02 10 a7 02 	slli	r21,r7,2
    c53c:	06 00 75 08 	add	r6,r21,r3
    c540:	14 00 55 28 	lr32	r20,[r21,r2]
    c544:	18 20 94 02 	slri	r20,r20,24
    c548:	14 1c 75 28 	sr8	r20,[r21,r3]
    c54c:	14 00 55 28 	lr32	r20,[r21,r2]
    c550:	10 20 94 02 	slri	r20,r20,16
    c554:	01 1c 86 22 	sd8	r20,[r6,1]
    c558:	14 00 55 28 	lr32	r20,[r21,r2]
    c55c:	08 20 94 02 	slri	r20,r20,8
    c560:	02 1c 86 22 	sd8	r20,[r6,2]
    c564:	14 18 55 28 	lr8	r20,[r21,r2]
    c568:	03 1c 86 22 	sd8	r20,[r6,3]
    c56c:	01 00 e7 00 	addi	r7,r7,1
    c570:	f1 13 c7 10 	blti	r7,6,c538 <bigint_to_char+0x8>
    c574:	00 08 12 00 	ja	r0,r18,0;	[0x0]

0000c578 <char_to_bigint>:
    c578:	f8 03 21 00 	addi	r1,r1,-8
    c57c:	01 04 21 23 	sd32	r25,[r1,4]
    c580:	18 04 01 28 	sr32	r24,[r1,r0]
    c584:	00 04 03 28 	sr32	r0,[r3,r0]
    c588:	05 08 00 08 	or	r5,r0,r0
    c58c:	00 e0 3f 27 	lhi	r25,2088960;	[0xff000000]
    c590:	e0 1f 00 27 	lhi	r24,8160;	[0xff0000]
    c594:	1f 00 80 24 	lhi	r4,31;	[0xf800]
    c598:	00 07 84 50 	ori	r4,r4,1792;	[0x700] 0xff00 <ECCGF2m_point_add+0x1d8>
    c59c:	02 10 85 02 	slli	r20,r5,2
    c5a0:	04 00 f4 00 	addi	r7,r20,4
    c5a4:	06 00 54 08 	add	r6,r20,r2
    c5a8:	15 18 54 28 	lr8	r21,[r20,r2]
    c5ac:	18 10 b5 02 	slli	r21,r21,24
    c5b0:	15 04 35 0b 	and	r21,r21,r25
    c5b4:	01 18 86 22 	ld8	r20,[r6,1]
    c5b8:	10 10 94 02 	slli	r20,r20,16
    c5bc:	14 04 14 0b 	and	r20,r20,r24
    c5c0:	15 08 95 0a 	or	r21,r21,r20
    c5c4:	02 18 86 22 	ld8	r20,[r6,2]
    c5c8:	08 10 94 02 	slli	r20,r20,8
    c5cc:	14 04 94 08 	and	r20,r20,r4
    c5d0:	15 08 95 0a 	or	r21,r21,r20
    c5d4:	03 38 86 22 	ld8u	r20,[r6,3]
    c5d8:	15 08 95 0a 	or	r21,r21,r20
    c5dc:	15 04 e3 28 	sr32	r21,[r3,r7]
    c5e0:	01 00 a5 00 	addi	r5,r5,1
    c5e4:	ed 13 c5 10 	blti	r5,6,c59c <char_to_bigint+0x24>
    c5e8:	18 00 01 28 	lr32	r24,[r1,r0]
    c5ec:	01 00 21 23 	ld32	r25,[r1,4]
    c5f0:	08 00 21 00 	addi	r1,r1,8
    c5f4:	00 08 12 00 	ja	r0,r18,0;	[0x0]

0000c5f8 <point_to_char>:
    c5f8:	f4 03 21 00 	addi	r1,r1,-12
    c5fc:	02 04 21 23 	sd32	r25,[r1,8]
    c600:	01 04 01 23 	sd32	r24,[r1,4]
    c604:	12 04 01 28 	sr32	r18,[r1,r0]
    c608:	19 08 02 08 	or	r25,r2,r0
    c60c:	18 08 03 08 	or	r24,r3,r0
    c610:	1a 00 80 26 	lhi	r20,26;	[0xd000]
    c614:	ae 08 54 02 	ja	r18,r20,696;	[0x2b8] 0xd2b8 <judge_ECC_null>
    c618:	02 18 02 10 	beqi	r2,0,c624 <point_to_char+0x2c>
    c61c:	00 1c 18 28 	sr8	r0,[r24,r0]
    c620:	02 00 00 14 	j	r0,c62c <point_to_char+0x34>
    c624:	04 00 80 52 	ori	r20,r0,4;	[0x4]
    c628:	14 1c 18 28 	sr8	r20,[r24,r0]
    c62c:	01 00 78 00 	addi	r3,r24,1
    c630:	02 08 19 08 	or	r2,r25,r0
    c634:	18 00 80 26 	lhi	r20,24;	[0xc000]
    c638:	4c 09 54 02 	ja	r18,r20,1328;	[0x530] 0xc530 <bigint_to_char>
    c63c:	1c 00 59 00 	addi	r2,r25,28
    c640:	19 00 78 00 	addi	r3,r24,25
    c644:	18 00 80 26 	lhi	r20,24;	[0xc000]
    c648:	4c 09 54 02 	ja	r18,r20,1328;	[0x530] 0xc530 <bigint_to_char>
    c64c:	12 00 01 28 	lr32	r18,[r1,r0]
    c650:	01 00 01 23 	ld32	r24,[r1,4]
    c654:	02 00 21 23 	ld32	r25,[r1,8]
    c658:	0c 00 21 00 	addi	r1,r1,12
    c65c:	00 08 12 00 	ja	r0,r18,0;	[0x0]

0000c660 <char_to_point>:
    c660:	f4 03 21 00 	addi	r1,r1,-12
    c664:	02 04 21 23 	sd32	r25,[r1,8]
    c668:	01 04 01 23 	sd32	r24,[r1,4]
    c66c:	12 04 01 28 	sr32	r18,[r1,r0]
    c670:	18 08 02 08 	or	r24,r2,r0
    c674:	19 08 03 08 	or	r25,r3,r0
    c678:	01 00 58 00 	addi	r2,r24,1
    c67c:	18 00 80 26 	lhi	r20,24;	[0xc000]
    c680:	5e 09 54 02 	ja	r18,r20,1400;	[0x578] 0xc578 <char_to_bigint>
    c684:	19 00 18 03 	addi	r24,r24,25
    c688:	1c 00 39 03 	addi	r25,r25,28
    c68c:	02 08 18 08 	or	r2,r24,r0
    c690:	03 08 19 08 	or	r3,r25,r0
    c694:	18 00 80 26 	lhi	r20,24;	[0xc000]
    c698:	5e 09 54 02 	ja	r18,r20,1400;	[0x578] 0xc578 <char_to_bigint>
    c69c:	12 00 01 28 	lr32	r18,[r1,r0]
    c6a0:	01 00 01 23 	ld32	r24,[r1,4]
    c6a4:	02 00 21 23 	ld32	r25,[r1,8]
    c6a8:	0c 00 21 00 	addi	r1,r1,12
    c6ac:	00 08 12 00 	ja	r0,r18,0;	[0x0]

0000c6b0 <bitint_bit_value>:
    c6b0:	06 08 02 08 	or	r6,r2,r0
    c6b4:	1f 00 80 26 	lhi	r20,31;	[0xf800]
    c6b8:	ff 07 94 52 	ori	r20,r20,2047;	[0x7ff] 0xffff <ECCGF2m_point_add+0x2d7>
    c6bc:	15 04 83 0a 	and	r21,r3,r20
    c6c0:	05 20 b5 02 	slri	r21,r21,5
    c6c4:	15 04 95 0a 	and	r21,r21,r20
    c6c8:	1f 00 63 30 	andi	r3,r3,31
    c6cc:	01 00 40 50 	ori	r2,r0,1;	[0x1]
    c6d0:	02 10 62 08 	sll	r2,r2,r3
    c6d4:	06 00 80 52 	ori	r20,r0,6;	[0x6]
    c6d8:	14 80 b4 0a 	sub	r20,r20,r21
    c6dc:	14 40 86 2a 	lx32	r20,[r6,r20]
    c6e0:	02 04 82 0a 	and	r2,r2,r20
    c6e4:	02 48 02 08 	sne	r2,r2,r0
    c6e8:	00 08 12 00 	ja	r0,r18,0;	[0x0]

0000c6ec <judge_bigint>:
    c6ec:	15 00 02 28 	lr32	r21,[r2,r0]
    c6f0:	14 00 03 28 	lr32	r20,[r3,r0]
    c6f4:	26 30 b4 1a 	bltu	r20,r21,c790 <judge_bigint+0xa4>
    c6f8:	15 00 02 28 	lr32	r21,[r2,r0]
    c6fc:	14 00 03 28 	lr32	r20,[r3,r0]
    c700:	1e 30 95 1a 	bltu	r21,r20,c77c <judge_bigint+0x90>
    c704:	01 00 a2 22 	ld32	r21,[r2,4]
    c708:	01 00 83 22 	ld32	r20,[r3,4]
    c70c:	20 30 b4 1a 	bltu	r20,r21,c790 <judge_bigint+0xa4>
    c710:	01 00 a2 22 	ld32	r21,[r2,4]
    c714:	01 00 83 22 	ld32	r20,[r3,4]
    c718:	18 30 95 1a 	bltu	r21,r20,c77c <judge_bigint+0x90>
    c71c:	02 00 a2 22 	ld32	r21,[r2,8]
    c720:	02 00 83 22 	ld32	r20,[r3,8]
    c724:	1a 30 b4 1a 	bltu	r20,r21,c790 <judge_bigint+0xa4>
    c728:	02 00 a2 22 	ld32	r21,[r2,8]
    c72c:	02 00 83 22 	ld32	r20,[r3,8]
    c730:	12 30 95 1a 	bltu	r21,r20,c77c <judge_bigint+0x90>
    c734:	03 00 a2 22 	ld32	r21,[r2,12]
    c738:	03 00 83 22 	ld32	r20,[r3,12]
    c73c:	14 30 b4 1a 	bltu	r20,r21,c790 <judge_bigint+0xa4>
    c740:	03 00 a2 22 	ld32	r21,[r2,12]
    c744:	03 00 83 22 	ld32	r20,[r3,12]
    c748:	0c 30 95 1a 	bltu	r21,r20,c77c <judge_bigint+0x90>
    c74c:	04 00 a2 22 	ld32	r21,[r2,16]
    c750:	04 00 83 22 	ld32	r20,[r3,16]
    c754:	0e 30 b4 1a 	bltu	r20,r21,c790 <judge_bigint+0xa4>
    c758:	04 00 a2 22 	ld32	r21,[r2,16]
    c75c:	04 00 83 22 	ld32	r20,[r3,16]
    c760:	06 30 95 1a 	bltu	r21,r20,c77c <judge_bigint+0x90>
    c764:	05 00 a2 22 	ld32	r21,[r2,20]
    c768:	05 00 83 22 	ld32	r20,[r3,20]
    c76c:	08 30 b4 1a 	bltu	r20,r21,c790 <judge_bigint+0xa4>
    c770:	05 00 a2 22 	ld32	r21,[r2,20]
    c774:	05 00 83 22 	ld32	r20,[r3,20]
    c778:	02 20 95 1a 	bgeu	r21,r20,c784 <judge_bigint+0x98>
    c77c:	ff ff 40 50 	ori	r2,r0,-1;	[0xffffffff]
    c780:	0a 00 00 14 	j	r0,c7ac <judge_bigint+0xc0>
    c784:	06 00 a2 22 	ld32	r21,[r2,24]
    c788:	06 00 83 22 	ld32	r20,[r3,24]
    c78c:	02 20 b4 1a 	bgeu	r20,r21,c798 <judge_bigint+0xac>
    c790:	01 00 40 50 	ori	r2,r0,1;	[0x1]
    c794:	05 00 00 14 	j	r0,c7ac <judge_bigint+0xc0>
    c798:	06 00 82 22 	ld32	r20,[r2,24]
    c79c:	06 00 a3 22 	ld32	r21,[r3,24]
    c7a0:	14 60 b4 0a 	sgeu	r20,r20,r21
    c7a4:	ff ff 40 50 	ori	r2,r0,-1;	[0xffffffff]
    c7a8:	02 34 14 08 	mvnz	r2,r20,r0
    c7ac:	00 08 12 00 	ja	r0,r18,0;	[0x0]

0000c7b0 <judge_bigint_null>:
    c7b0:	14 00 02 28 	lr32	r20,[r2,r0]
    c7b4:	0a 08 14 10 	bnei	r20,0,c7e0 <judge_bigint_null+0x30>
    c7b8:	01 00 82 22 	ld32	r20,[r2,4]
    c7bc:	08 08 14 10 	bnei	r20,0,c7e0 <judge_bigint_null+0x30>
    c7c0:	02 00 82 22 	ld32	r20,[r2,8]
    c7c4:	06 08 14 10 	bnei	r20,0,c7e0 <judge_bigint_null+0x30>
    c7c8:	03 00 82 22 	ld32	r20,[r2,12]
    c7cc:	04 08 14 10 	bnei	r20,0,c7e0 <judge_bigint_null+0x30>
    c7d0:	04 00 82 22 	ld32	r20,[r2,16]
    c7d4:	02 08 14 10 	bnei	r20,0,c7e0 <judge_bigint_null+0x30>
    c7d8:	05 00 82 22 	ld32	r20,[r2,20]
    c7dc:	02 18 14 10 	beqi	r20,0,c7e8 <judge_bigint_null+0x38>
    c7e0:	02 08 00 08 	or	r2,r0,r0
    c7e4:	02 00 00 14 	j	r0,c7f0 <judge_bigint_null+0x40>
    c7e8:	06 00 42 20 	ld32	r2,[r2,24]
    c7ec:	02 58 02 08 	seq	r2,r2,r0
    c7f0:	00 08 12 00 	ja	r0,r18,0;	[0x0]

0000c7f4 <bigint_add>:
    c7f4:	f4 03 21 00 	addi	r1,r1,-12
    c7f8:	02 04 41 23 	sd32	r26,[r1,8]
    c7fc:	01 04 21 23 	sd32	r25,[r1,4]
    c800:	18 04 01 28 	sr32	r24,[r1,r0]
    c804:	18 08 02 08 	or	r24,r2,r0
    c808:	02 08 03 08 	or	r2,r3,r0
    c80c:	03 08 04 08 	or	r3,r4,r0
    c810:	05 08 00 08 	or	r5,r0,r0
    c814:	06 00 80 50 	ori	r4,r0,6;	[0x6]
    c818:	01 00 40 53 	ori	r26,r0,1;	[0x1]
    c81c:	ff ff 20 53 	ori	r25,r0,-1;	[0xffffffff]
    c820:	02 10 a4 02 	slli	r21,r4,2
    c824:	07 00 b8 2a 	lr32	r7,[r24,r21]
    c828:	14 00 a2 2a 	lr32	r20,[r2,r21]
    c82c:	06 00 87 0a 	add	r6,r7,r20
    c830:	14 00 a6 08 	add	r20,r6,r5
    c834:	14 04 a3 2a 	sr32	r20,[r3,r21]
    c838:	14 58 45 0b 	seq	r20,r5,r26
    c83c:	15 58 26 0b 	seq	r21,r6,r25
    c840:	14 04 b4 0a 	and	r20,r20,r21
    c844:	01 08 14 10 	bnei	r20,0,c84c <bigint_add+0x58>
    c848:	02 20 e6 18 	bgeu	r6,r7,c854 <bigint_add+0x60>
    c84c:	01 00 a0 50 	ori	r5,r0,1;	[0x1]
    c850:	01 00 00 14 	j	r0,c858 <bigint_add+0x64>
    c854:	05 08 00 08 	or	r5,r0,r0
    c858:	ff 03 84 00 	addi	r4,r4,-1
    c85c:	f0 03 04 10 	bgei	r4,0,c820 <bigint_add+0x2c>
    c860:	18 00 01 28 	lr32	r24,[r1,r0]
    c864:	01 00 21 23 	ld32	r25,[r1,4]
    c868:	02 00 41 23 	ld32	r26,[r1,8]
    c86c:	0c 00 21 00 	addi	r1,r1,12
    c870:	00 08 12 00 	ja	r0,r18,0;	[0x0]

0000c874 <bigint_sub>:
    c874:	e0 03 21 00 	addi	r1,r1,-32
    c878:	07 08 02 08 	or	r7,r2,r0
    c87c:	06 00 43 20 	ld32	r2,[r3,24]
    c880:	06 00 a7 22 	ld32	r21,[r7,24]
    c884:	14 80 55 08 	sub	r20,r21,r2
    c888:	06 04 81 22 	sd32	r20,[r1,24]
    c88c:	15 70 55 08 	sltu	r21,r21,r2
    c890:	05 00 83 22 	ld32	r20,[r3,20]
    c894:	02 00 95 0a 	add	r2,r21,r20
    c898:	05 00 c7 20 	ld32	r6,[r7,20]
    c89c:	14 80 46 08 	sub	r20,r6,r2
    c8a0:	05 04 81 22 	sd32	r20,[r1,20]
    c8a4:	14 58 02 08 	seq	r20,r2,r0
    c8a8:	14 04 b4 0a 	and	r20,r20,r21
    c8ac:	01 08 14 10 	bnei	r20,0,c8b4 <bigint_sub+0x40>
    c8b0:	02 20 46 18 	bgeu	r6,r2,c8bc <bigint_sub+0x48>
    c8b4:	01 00 a0 52 	ori	r21,r0,1;	[0x1]
    c8b8:	01 00 00 14 	j	r0,c8c0 <bigint_sub+0x4c>
    c8bc:	15 08 00 08 	or	r21,r0,r0
    c8c0:	04 00 83 22 	ld32	r20,[r3,16]
    c8c4:	02 00 95 0a 	add	r2,r21,r20
    c8c8:	04 00 c7 20 	ld32	r6,[r7,16]
    c8cc:	14 80 46 08 	sub	r20,r6,r2
    c8d0:	04 04 81 22 	sd32	r20,[r1,16]
    c8d4:	14 58 02 08 	seq	r20,r2,r0
    c8d8:	14 04 b4 0a 	and	r20,r20,r21
    c8dc:	01 08 14 10 	bnei	r20,0,c8e4 <bigint_sub+0x70>
    c8e0:	02 20 46 18 	bgeu	r6,r2,c8ec <bigint_sub+0x78>
    c8e4:	01 00 a0 52 	ori	r21,r0,1;	[0x1]
    c8e8:	01 00 00 14 	j	r0,c8f0 <bigint_sub+0x7c>
    c8ec:	15 08 00 08 	or	r21,r0,r0
    c8f0:	03 00 83 22 	ld32	r20,[r3,12]
    c8f4:	02 00 95 0a 	add	r2,r21,r20
    c8f8:	03 00 c7 20 	ld32	r6,[r7,12]
    c8fc:	14 80 46 08 	sub	r20,r6,r2
    c900:	03 04 81 22 	sd32	r20,[r1,12]
    c904:	14 58 02 08 	seq	r20,r2,r0
    c908:	14 04 b4 0a 	and	r20,r20,r21
    c90c:	01 08 14 10 	bnei	r20,0,c914 <bigint_sub+0xa0>
    c910:	02 20 46 18 	bgeu	r6,r2,c91c <bigint_sub+0xa8>
    c914:	01 00 a0 52 	ori	r21,r0,1;	[0x1]
    c918:	01 00 00 14 	j	r0,c920 <bigint_sub+0xac>
    c91c:	15 08 00 08 	or	r21,r0,r0
    c920:	02 00 83 22 	ld32	r20,[r3,8]
    c924:	02 00 95 0a 	add	r2,r21,r20
    c928:	02 00 c7 20 	ld32	r6,[r7,8]
    c92c:	14 80 46 08 	sub	r20,r6,r2
    c930:	02 04 81 22 	sd32	r20,[r1,8]
    c934:	14 58 02 08 	seq	r20,r2,r0
    c938:	14 04 b4 0a 	and	r20,r20,r21
    c93c:	01 08 14 10 	bnei	r20,0,c944 <bigint_sub+0xd0>
    c940:	02 20 46 18 	bgeu	r6,r2,c94c <bigint_sub+0xd8>
    c944:	01 00 a0 52 	ori	r21,r0,1;	[0x1]
    c948:	01 00 00 14 	j	r0,c950 <bigint_sub+0xdc>
    c94c:	15 08 00 08 	or	r21,r0,r0
    c950:	01 00 83 22 	ld32	r20,[r3,4]
    c954:	02 00 95 0a 	add	r2,r21,r20
    c958:	01 00 c7 20 	ld32	r6,[r7,4]
    c95c:	14 80 46 08 	sub	r20,r6,r2
    c960:	01 04 81 22 	sd32	r20,[r1,4]
    c964:	14 58 02 08 	seq	r20,r2,r0
    c968:	14 04 b4 0a 	and	r20,r20,r21
    c96c:	01 08 14 10 	bnei	r20,0,c974 <bigint_sub+0x100>
    c970:	02 20 46 18 	bgeu	r6,r2,c97c <bigint_sub+0x108>
    c974:	01 00 a0 52 	ori	r21,r0,1;	[0x1]
    c978:	01 00 00 14 	j	r0,c980 <bigint_sub+0x10c>
    c97c:	15 08 00 08 	or	r21,r0,r0
    c980:	14 00 03 28 	lr32	r20,[r3,r0]
    c984:	02 00 95 0a 	add	r2,r21,r20
    c988:	14 00 07 28 	lr32	r20,[r7,r0]
    c98c:	14 80 54 08 	sub	r20,r20,r2
    c990:	14 04 04 28 	sr32	r20,[r4,r0]
    c994:	01 00 81 22 	ld32	r20,[r1,4]
    c998:	01 04 84 22 	sd32	r20,[r4,4]
    c99c:	02 00 81 22 	ld32	r20,[r1,8]
    c9a0:	02 04 84 22 	sd32	r20,[r4,8]
    c9a4:	03 00 81 22 	ld32	r20,[r1,12]
    c9a8:	03 04 84 22 	sd32	r20,[r4,12]
    c9ac:	04 00 81 22 	ld32	r20,[r1,16]
    c9b0:	04 04 84 22 	sd32	r20,[r4,16]
    c9b4:	05 00 81 22 	ld32	r20,[r1,20]
    c9b8:	05 04 84 22 	sd32	r20,[r4,20]
    c9bc:	06 00 81 22 	ld32	r20,[r1,24]
    c9c0:	06 04 84 22 	sd32	r20,[r4,24]
    c9c4:	20 00 21 00 	addi	r1,r1,32
    c9c8:	00 08 12 00 	ja	r0,r18,0;	[0x0]

0000c9cc <bigint_mod_add>:
    c9cc:	f4 03 21 00 	addi	r1,r1,-12
    c9d0:	02 04 21 23 	sd32	r25,[r1,8]
    c9d4:	01 04 01 23 	sd32	r24,[r1,4]
    c9d8:	12 04 01 28 	sr32	r18,[r1,r0]
    c9dc:	19 08 04 08 	or	r25,r4,r0
    c9e0:	18 08 05 08 	or	r24,r5,r0
    c9e4:	04 08 18 08 	or	r4,r24,r0
    c9e8:	18 00 80 26 	lhi	r20,24;	[0xc000]
    c9ec:	fd 09 54 02 	ja	r18,r20,2036;	[0x7f4] 0xc7f4 <bigint_add>
    c9f0:	02 08 18 08 	or	r2,r24,r0
    c9f4:	03 08 19 08 	or	r3,r25,r0
    c9f8:	18 00 80 26 	lhi	r20,24;	[0xc000]
    c9fc:	bb 09 54 02 	ja	r18,r20,1772;	[0x6ec] 0xc6ec <judge_bigint>
    ca00:	05 10 02 10 	blti	r2,0,ca18 <bigint_mod_add+0x4c>
    ca04:	02 08 18 08 	or	r2,r24,r0
    ca08:	03 08 19 08 	or	r3,r25,r0
    ca0c:	04 08 18 08 	or	r4,r24,r0
    ca10:	19 00 80 26 	lhi	r20,25;	[0xc800]
    ca14:	1d 08 54 02 	ja	r18,r20,116;	[0x74] 0xc874 <bigint_sub>
    ca18:	12 00 01 28 	lr32	r18,[r1,r0]
    ca1c:	01 00 01 23 	ld32	r24,[r1,4]
    ca20:	02 00 21 23 	ld32	r25,[r1,8]
    ca24:	0c 00 21 00 	addi	r1,r1,12
    ca28:	00 08 12 00 	ja	r0,r18,0;	[0x0]

0000ca2c <bigint_mod_sub>:
    ca2c:	cc 03 21 00 	addi	r1,r1,-52
    ca30:	0c 04 61 23 	sd32	r27,[r1,48]
    ca34:	0b 04 41 23 	sd32	r26,[r1,44]
    ca38:	0a 04 21 23 	sd32	r25,[r1,40]
    ca3c:	09 04 01 23 	sd32	r24,[r1,36]
    ca40:	08 04 41 22 	sd32	r18,[r1,32]
    ca44:	18 08 02 08 	or	r24,r2,r0
    ca48:	1a 08 03 08 	or	r26,r3,r0
    ca4c:	19 08 04 08 	or	r25,r4,r0
    ca50:	1b 08 05 08 	or	r27,r5,r0
    ca54:	18 00 80 26 	lhi	r20,24;	[0xc000]
    ca58:	bb 09 54 02 	ja	r18,r20,1772;	[0x6ec] 0xc6ec <judge_bigint>
    ca5c:	06 10 02 10 	blti	r2,0,ca78 <bigint_mod_sub+0x4c>
    ca60:	02 08 18 08 	or	r2,r24,r0
    ca64:	03 08 1a 08 	or	r3,r26,r0
    ca68:	04 08 1b 08 	or	r4,r27,r0
    ca6c:	19 00 80 26 	lhi	r20,25;	[0xc800]
    ca70:	1d 08 54 02 	ja	r18,r20,116;	[0x74] 0xc874 <bigint_sub>
    ca74:	0a 00 00 14 	j	r0,caa0 <bigint_mod_sub+0x74>
    ca78:	02 08 18 08 	or	r2,r24,r0
    ca7c:	03 08 19 08 	or	r3,r25,r0
    ca80:	04 08 01 08 	or	r4,r1,r0
    ca84:	18 00 80 26 	lhi	r20,24;	[0xc000]
    ca88:	fd 09 54 02 	ja	r18,r20,2036;	[0x7f4] 0xc7f4 <bigint_add>
    ca8c:	02 08 01 08 	or	r2,r1,r0
    ca90:	03 08 1a 08 	or	r3,r26,r0
    ca94:	04 08 1b 08 	or	r4,r27,r0
    ca98:	19 00 80 26 	lhi	r20,25;	[0xc800]
    ca9c:	1d 08 54 02 	ja	r18,r20,116;	[0x74] 0xc874 <bigint_sub>
    caa0:	08 00 41 22 	ld32	r18,[r1,32]
    caa4:	09 00 01 23 	ld32	r24,[r1,36]
    caa8:	0a 00 21 23 	ld32	r25,[r1,40]
    caac:	0b 00 41 23 	ld32	r26,[r1,44]
    cab0:	0c 00 61 23 	ld32	r27,[r1,48]
    cab4:	34 00 21 00 	addi	r1,r1,52
    cab8:	00 08 12 00 	ja	r0,r18,0;	[0x0]

0000cabc <bigint_mod_mul_two>:
    cabc:	f4 03 21 00 	addi	r1,r1,-12
    cac0:	02 04 21 23 	sd32	r25,[r1,8]
    cac4:	01 04 01 23 	sd32	r24,[r1,4]
    cac8:	12 04 01 28 	sr32	r18,[r1,r0]
    cacc:	19 08 03 08 	or	r25,r3,r0
    cad0:	18 08 04 08 	or	r24,r4,r0
    cad4:	05 08 00 08 	or	r5,r0,r0
    cad8:	00 04 18 28 	sr32	r0,[r24,r0]
    cadc:	06 00 e0 50 	ori	r7,r0,6;	[0x6]
    cae0:	00 00 90 24 	lhi	r4,1048576;	[0x80000000]
    cae4:	02 10 c7 00 	slli	r6,r7,2
    cae8:	15 00 c2 28 	lr32	r21,[r2,r6]
    caec:	01 10 95 02 	slli	r20,r21,1
    caf0:	14 00 b4 08 	add	r20,r20,r5
    caf4:	14 04 d8 28 	sr32	r20,[r24,r6]
    caf8:	15 04 95 08 	and	r21,r21,r4
    cafc:	1f 20 b5 00 	slri	r5,r21,31
    cb00:	ff 03 e7 00 	addi	r7,r7,-1
    cb04:	f7 03 07 10 	bgei	r7,0,cae4 <bigint_mod_mul_two+0x28>
    cb08:	02 08 18 08 	or	r2,r24,r0
    cb0c:	03 08 19 08 	or	r3,r25,r0
    cb10:	18 00 80 26 	lhi	r20,24;	[0xc000]
    cb14:	bb 09 54 02 	ja	r18,r20,1772;	[0x6ec] 0xc6ec <judge_bigint>
    cb18:	05 10 02 10 	blti	r2,0,cb30 <bigint_mod_mul_two+0x74>
    cb1c:	02 08 18 08 	or	r2,r24,r0
    cb20:	03 08 19 08 	or	r3,r25,r0
    cb24:	04 08 18 08 	or	r4,r24,r0
    cb28:	19 00 80 26 	lhi	r20,25;	[0xc800]
    cb2c:	1d 08 54 02 	ja	r18,r20,116;	[0x74] 0xc874 <bigint_sub>
    cb30:	12 00 01 28 	lr32	r18,[r1,r0]
    cb34:	01 00 01 23 	ld32	r24,[r1,4]
    cb38:	02 00 21 23 	ld32	r25,[r1,8]
    cb3c:	0c 00 21 00 	addi	r1,r1,12
    cb40:	00 08 12 00 	ja	r0,r18,0;	[0x0]

0000cb44 <bigint_div_two>:
    cb44:	15 00 02 28 	lr32	r21,[r2,r0]
    cb48:	01 20 95 02 	slri	r20,r21,1
    cb4c:	14 04 03 28 	sr32	r20,[r3,r0]
    cb50:	01 00 95 32 	andi	r20,r21,1
    cb54:	01 00 a2 22 	ld32	r21,[r2,4]
    cb58:	01 20 d5 00 	slri	r6,r21,1
    cb5c:	01 04 c3 20 	sd32	r6,[r3,4]
    cb60:	03 18 14 10 	beqi	r20,0,cb70 <bigint_div_two+0x2c>
    cb64:	00 00 90 26 	lhi	r20,1048576;	[0x80000000]
    cb68:	14 08 86 0a 	or	r20,r6,r20
    cb6c:	01 04 83 22 	sd32	r20,[r3,4]
    cb70:	01 00 95 32 	andi	r20,r21,1
    cb74:	02 00 a2 22 	ld32	r21,[r2,8]
    cb78:	01 20 d5 00 	slri	r6,r21,1
    cb7c:	02 04 c3 20 	sd32	r6,[r3,8]
    cb80:	03 18 14 10 	beqi	r20,0,cb90 <bigint_div_two+0x4c>
    cb84:	00 00 90 26 	lhi	r20,1048576;	[0x80000000]
    cb88:	14 08 86 0a 	or	r20,r6,r20
    cb8c:	02 04 83 22 	sd32	r20,[r3,8]
    cb90:	01 00 95 32 	andi	r20,r21,1
    cb94:	03 00 a2 22 	ld32	r21,[r2,12]
    cb98:	01 20 d5 00 	slri	r6,r21,1
    cb9c:	03 04 c3 20 	sd32	r6,[r3,12]
    cba0:	03 18 14 10 	beqi	r20,0,cbb0 <bigint_div_two+0x6c>
    cba4:	00 00 90 26 	lhi	r20,1048576;	[0x80000000]
    cba8:	14 08 86 0a 	or	r20,r6,r20
    cbac:	03 04 83 22 	sd32	r20,[r3,12]
    cbb0:	01 00 95 32 	andi	r20,r21,1
    cbb4:	04 00 a2 22 	ld32	r21,[r2,16]
    cbb8:	01 20 d5 00 	slri	r6,r21,1
    cbbc:	04 04 c3 20 	sd32	r6,[r3,16]
    cbc0:	03 18 14 10 	beqi	r20,0,cbd0 <bigint_div_two+0x8c>
    cbc4:	00 00 90 26 	lhi	r20,1048576;	[0x80000000]
    cbc8:	14 08 86 0a 	or	r20,r6,r20
    cbcc:	04 04 83 22 	sd32	r20,[r3,16]
    cbd0:	01 00 95 32 	andi	r20,r21,1
    cbd4:	05 00 a2 22 	ld32	r21,[r2,20]
    cbd8:	01 20 d5 00 	slri	r6,r21,1
    cbdc:	05 04 c3 20 	sd32	r6,[r3,20]
    cbe0:	03 18 14 10 	beqi	r20,0,cbf0 <bigint_div_two+0xac>
    cbe4:	00 00 90 26 	lhi	r20,1048576;	[0x80000000]
    cbe8:	14 08 86 0a 	or	r20,r6,r20
    cbec:	05 04 83 22 	sd32	r20,[r3,20]
    cbf0:	01 00 95 32 	andi	r20,r21,1
    cbf4:	06 00 a2 22 	ld32	r21,[r2,24]
    cbf8:	01 20 b5 02 	slri	r21,r21,1
    cbfc:	06 04 a3 22 	sd32	r21,[r3,24]
    cc00:	03 18 14 10 	beqi	r20,0,cc10 <bigint_div_two+0xcc>
    cc04:	00 00 90 26 	lhi	r20,1048576;	[0x80000000]
    cc08:	14 08 95 0a 	or	r20,r21,r20
    cc0c:	06 04 83 22 	sd32	r20,[r3,24]
    cc10:	00 08 12 00 	ja	r0,r18,0;	[0x0]

0000cc14 <bigint_ab_two>:
    cc14:	fc 03 21 00 	addi	r1,r1,-4
    cc18:	18 04 01 28 	sr32	r24,[r1,r0]
    cc1c:	18 08 03 08 	or	r24,r3,r0
    cc20:	00 04 04 28 	sr32	r0,[r4,r0]
    cc24:	01 00 a2 22 	ld32	r21,[r2,4]
    cc28:	01 00 b5 30 	andi	r5,r21,1
    cc2c:	01 00 98 22 	ld32	r20,[r24,4]
    cc30:	01 00 d4 30 	andi	r6,r20,1
    cc34:	01 20 f5 00 	slri	r7,r21,1
    cc38:	01 20 94 02 	slri	r20,r20,1
    cc3c:	07 00 87 0a 	add	r7,r7,r20
    cc40:	14 48 05 08 	sne	r20,r5,r0
    cc44:	14 04 d4 08 	and	r20,r20,r6
    cc48:	01 18 14 10 	beqi	r20,0,cc50 <bigint_ab_two+0x3c>
    cc4c:	01 00 e7 00 	addi	r7,r7,1
    cc50:	01 04 e4 20 	sd32	r7,[r4,4]
    cc54:	03 0c c5 08 	xor	r3,r5,r6
    cc58:	02 00 a2 22 	ld32	r21,[r2,8]
    cc5c:	01 00 b5 30 	andi	r5,r21,1
    cc60:	02 00 98 22 	ld32	r20,[r24,8]
    cc64:	01 00 d4 30 	andi	r6,r20,1
    cc68:	01 20 f5 00 	slri	r7,r21,1
    cc6c:	01 20 94 02 	slri	r20,r20,1
    cc70:	07 00 87 0a 	add	r7,r7,r20
    cc74:	14 48 05 08 	sne	r20,r5,r0
    cc78:	14 04 d4 08 	and	r20,r20,r6
    cc7c:	01 18 14 10 	beqi	r20,0,cc84 <bigint_ab_two+0x70>
    cc80:	01 00 e7 00 	addi	r7,r7,1
    cc84:	06 18 03 10 	beqi	r3,0,cca0 <bigint_ab_two+0x8c>
    cc88:	03 00 07 10 	bgei	r7,0,cc98 <bigint_ab_two+0x84>
    cc8c:	01 00 84 22 	ld32	r20,[r4,4]
    cc90:	01 00 94 02 	addi	r20,r20,1
    cc94:	01 04 84 22 	sd32	r20,[r4,4]
    cc98:	00 00 90 26 	lhi	r20,1048576;	[0x80000000]
    cc9c:	07 00 87 0a 	add	r7,r7,r20
    cca0:	02 04 e4 20 	sd32	r7,[r4,8]
    cca4:	03 0c c5 08 	xor	r3,r5,r6
    cca8:	03 00 a2 22 	ld32	r21,[r2,12]
    ccac:	01 00 b5 30 	andi	r5,r21,1
    ccb0:	03 00 98 22 	ld32	r20,[r24,12]
    ccb4:	01 00 d4 30 	andi	r6,r20,1
    ccb8:	01 20 f5 00 	slri	r7,r21,1
    ccbc:	01 20 94 02 	slri	r20,r20,1
    ccc0:	07 00 87 0a 	add	r7,r7,r20
    ccc4:	14 48 05 08 	sne	r20,r5,r0
    ccc8:	14 04 d4 08 	and	r20,r20,r6
    cccc:	01 18 14 10 	beqi	r20,0,ccd4 <bigint_ab_two+0xc0>
    ccd0:	01 00 e7 00 	addi	r7,r7,1
    ccd4:	06 18 03 10 	beqi	r3,0,ccf0 <bigint_ab_two+0xdc>
    ccd8:	03 00 07 10 	bgei	r7,0,cce8 <bigint_ab_two+0xd4>
    ccdc:	02 00 84 22 	ld32	r20,[r4,8]
    cce0:	01 00 94 02 	addi	r20,r20,1
    cce4:	02 04 84 22 	sd32	r20,[r4,8]
    cce8:	00 00 90 26 	lhi	r20,1048576;	[0x80000000]
    ccec:	07 00 87 0a 	add	r7,r7,r20
    ccf0:	03 04 e4 20 	sd32	r7,[r4,12]
    ccf4:	03 0c c5 08 	xor	r3,r5,r6
    ccf8:	04 00 a2 22 	ld32	r21,[r2,16]
    ccfc:	01 00 b5 30 	andi	r5,r21,1
    cd00:	04 00 98 22 	ld32	r20,[r24,16]
    cd04:	01 00 d4 30 	andi	r6,r20,1
    cd08:	01 20 f5 00 	slri	r7,r21,1
    cd0c:	01 20 94 02 	slri	r20,r20,1
    cd10:	07 00 87 0a 	add	r7,r7,r20
    cd14:	14 48 05 08 	sne	r20,r5,r0
    cd18:	14 04 d4 08 	and	r20,r20,r6
    cd1c:	01 18 14 10 	beqi	r20,0,cd24 <bigint_ab_two+0x110>
    cd20:	01 00 e7 00 	addi	r7,r7,1
    cd24:	06 18 03 10 	beqi	r3,0,cd40 <bigint_ab_two+0x12c>
    cd28:	03 00 07 10 	bgei	r7,0,cd38 <bigint_ab_two+0x124>
    cd2c:	03 00 84 22 	ld32	r20,[r4,12]
    cd30:	01 00 94 02 	addi	r20,r20,1
    cd34:	03 04 84 22 	sd32	r20,[r4,12]
    cd38:	00 00 90 26 	lhi	r20,1048576;	[0x80000000]
    cd3c:	07 00 87 0a 	add	r7,r7,r20
    cd40:	04 04 e4 20 	sd32	r7,[r4,16]
    cd44:	03 0c c5 08 	xor	r3,r5,r6
    cd48:	05 00 a2 22 	ld32	r21,[r2,20]
    cd4c:	01 00 b5 30 	andi	r5,r21,1
    cd50:	05 00 98 22 	ld32	r20,[r24,20]
    cd54:	01 00 d4 30 	andi	r6,r20,1
    cd58:	01 20 f5 00 	slri	r7,r21,1
    cd5c:	01 20 94 02 	slri	r20,r20,1
    cd60:	07 00 87 0a 	add	r7,r7,r20
    cd64:	14 48 05 08 	sne	r20,r5,r0
    cd68:	14 04 d4 08 	and	r20,r20,r6
    cd6c:	01 18 14 10 	beqi	r20,0,cd74 <bigint_ab_two+0x160>
    cd70:	01 00 e7 00 	addi	r7,r7,1
    cd74:	06 18 03 10 	beqi	r3,0,cd90 <bigint_ab_two+0x17c>
    cd78:	03 00 07 10 	bgei	r7,0,cd88 <bigint_ab_two+0x174>
    cd7c:	04 00 84 22 	ld32	r20,[r4,16]
    cd80:	01 00 94 02 	addi	r20,r20,1
    cd84:	04 04 84 22 	sd32	r20,[r4,16]
    cd88:	00 00 90 26 	lhi	r20,1048576;	[0x80000000]
    cd8c:	07 00 87 0a 	add	r7,r7,r20
    cd90:	05 04 e4 20 	sd32	r7,[r4,20]
    cd94:	03 0c c5 08 	xor	r3,r5,r6
    cd98:	06 00 82 22 	ld32	r20,[r2,24]
    cd9c:	06 00 b8 22 	ld32	r21,[r24,24]
    cda0:	01 20 f4 00 	slri	r7,r20,1
    cda4:	01 20 d5 00 	slri	r6,r21,1
    cda8:	07 00 c7 08 	add	r7,r7,r6
    cdac:	15 04 95 0a 	and	r21,r21,r20
    cdb0:	01 00 b5 32 	andi	r21,r21,1
    cdb4:	01 18 15 10 	beqi	r21,0,cdbc <bigint_ab_two+0x1a8>
    cdb8:	01 00 e7 00 	addi	r7,r7,1
    cdbc:	06 18 03 10 	beqi	r3,0,cdd8 <bigint_ab_two+0x1c4>
    cdc0:	03 00 07 10 	bgei	r7,0,cdd0 <bigint_ab_two+0x1bc>
    cdc4:	05 00 84 22 	ld32	r20,[r4,20]
    cdc8:	01 00 94 02 	addi	r20,r20,1
    cdcc:	05 04 84 22 	sd32	r20,[r4,20]
    cdd0:	00 00 90 26 	lhi	r20,1048576;	[0x80000000]
    cdd4:	07 00 87 0a 	add	r7,r7,r20
    cdd8:	06 04 e4 20 	sd32	r7,[r4,24]
    cddc:	18 00 01 28 	lr32	r24,[r1,r0]
    cde0:	04 00 21 00 	addi	r1,r1,4
    cde4:	00 08 12 00 	ja	r0,r18,0;	[0x0]

0000cde8 <bigint_mod_mul>:
    cde8:	f8 03 21 00 	addi	r1,r1,-8
    cdec:	01 04 01 23 	sd32	r24,[r1,4]
    cdf0:	12 04 01 28 	sr32	r18,[r1,r0]
    cdf4:	14 08 02 08 	or	r20,r2,r0
    cdf8:	04 08 03 08 	or	r4,r3,r0
    cdfc:	18 08 05 08 	or	r24,r5,r0
    ce00:	04 00 58 00 	addi	r2,r24,4
    ce04:	04 00 94 02 	addi	r20,r20,4
    ce08:	04 00 84 00 	addi	r4,r4,4
    ce0c:	03 08 14 08 	or	r3,r20,r0
    ce10:	21 00 80 26 	lhi	r20,33;	[0x10800]
    ce14:	29 09 54 02 	ja	r18,r20,1188;	[0x4a4] 0x10ca4 <ABmodN_FOR_ECC>
    ce18:	00 04 18 28 	sr32	r0,[r24,r0]
    ce1c:	12 00 01 28 	lr32	r18,[r1,r0]
    ce20:	01 00 01 23 	ld32	r24,[r1,4]
    ce24:	08 00 21 00 	addi	r1,r1,8
    ce28:	00 08 12 00 	ja	r0,r18,0;	[0x0]

0000ce2c <bigint_EEA_algo>:
    ce2c:	6c 03 21 00 	addi	r1,r1,-148
    ce30:	24 04 61 23 	sd32	r27,[r1,144]
    ce34:	23 04 41 23 	sd32	r26,[r1,140]
    ce38:	22 04 21 23 	sd32	r25,[r1,136]
    ce3c:	21 04 01 23 	sd32	r24,[r1,132]
    ce40:	20 04 41 22 	sd32	r18,[r1,128]
    ce44:	1a 08 03 08 	or	r26,r3,r0
    ce48:	1b 08 04 08 	or	r27,r4,r0
    ce4c:	14 00 02 28 	lr32	r20,[r2,r0]
    ce50:	14 04 01 28 	sr32	r20,[r1,r0]
    ce54:	01 00 82 22 	ld32	r20,[r2,4]
    ce58:	01 04 81 22 	sd32	r20,[r1,4]
    ce5c:	02 00 82 22 	ld32	r20,[r2,8]
    ce60:	02 04 81 22 	sd32	r20,[r1,8]
    ce64:	03 00 82 22 	ld32	r20,[r2,12]
    ce68:	03 04 81 22 	sd32	r20,[r1,12]
    ce6c:	04 00 82 22 	ld32	r20,[r2,16]
    ce70:	04 04 81 22 	sd32	r20,[r1,16]
    ce74:	05 00 82 22 	ld32	r20,[r2,20]
    ce78:	05 04 81 22 	sd32	r20,[r1,20]
    ce7c:	06 00 82 22 	ld32	r20,[r2,24]
    ce80:	06 04 81 22 	sd32	r20,[r1,24]
    ce84:	14 00 1a 28 	lr32	r20,[r26,r0]
    ce88:	08 04 81 22 	sd32	r20,[r1,32]
    ce8c:	01 00 9a 22 	ld32	r20,[r26,4]
    ce90:	09 04 81 22 	sd32	r20,[r1,36]
    ce94:	02 00 9a 22 	ld32	r20,[r26,8]
    ce98:	0a 04 81 22 	sd32	r20,[r1,40]
    ce9c:	03 00 9a 22 	ld32	r20,[r26,12]
    cea0:	0b 04 81 22 	sd32	r20,[r1,44]
    cea4:	04 00 9a 22 	ld32	r20,[r26,16]
    cea8:	0c 04 81 22 	sd32	r20,[r1,48]
    ceac:	05 00 9a 22 	ld32	r20,[r26,20]
    ceb0:	0d 04 81 22 	sd32	r20,[r1,52]
    ceb4:	06 00 9a 22 	ld32	r20,[r26,24]
    ceb8:	0e 04 81 22 	sd32	r20,[r1,56]
    cebc:	10 04 01 20 	sd32	r0,[r1,64]
    cec0:	11 04 01 20 	sd32	r0,[r1,68]
    cec4:	12 04 01 20 	sd32	r0,[r1,72]
    cec8:	13 04 01 20 	sd32	r0,[r1,76]
    cecc:	14 04 01 20 	sd32	r0,[r1,80]
    ced0:	15 04 01 20 	sd32	r0,[r1,84]
    ced4:	01 00 80 52 	ori	r20,r0,1;	[0x1]
    ced8:	16 04 81 22 	sd32	r20,[r1,88]
    cedc:	18 04 01 20 	sd32	r0,[r1,96]
    cee0:	19 04 01 20 	sd32	r0,[r1,100]
    cee4:	1a 04 01 20 	sd32	r0,[r1,104]
    cee8:	1b 04 01 20 	sd32	r0,[r1,108]
    ceec:	1c 04 01 20 	sd32	r0,[r1,112]
    cef0:	1d 04 01 20 	sd32	r0,[r1,116]
    cef4:	1e 04 01 20 	sd32	r0,[r1,120]
    cef8:	06 00 81 22 	ld32	r20,[r1,24]
    cefc:	01 00 94 32 	andi	r20,r20,1
    cf00:	15 08 14 10 	bnei	r20,0,cf58 <bigint_EEA_algo+0x12c>
    cf04:	40 00 01 03 	addi	r24,r1,64
    cf08:	02 08 01 08 	or	r2,r1,r0
    cf0c:	03 08 01 08 	or	r3,r1,r0
    cf10:	19 00 80 26 	lhi	r20,25;	[0xc800]
    cf14:	d1 08 54 02 	ja	r18,r20,836;	[0x344] 0xcb44 <bigint_div_two>
    cf18:	16 00 81 22 	ld32	r20,[r1,88]
    cf1c:	01 00 94 32 	andi	r20,r20,1
    cf20:	05 08 14 10 	bnei	r20,0,cf38 <bigint_EEA_algo+0x10c>
    cf24:	02 08 18 08 	or	r2,r24,r0
    cf28:	03 08 18 08 	or	r3,r24,r0
    cf2c:	19 00 80 26 	lhi	r20,25;	[0xc800]
    cf30:	d1 08 54 02 	ja	r18,r20,836;	[0x344] 0xcb44 <bigint_div_two>
    cf34:	05 00 00 14 	j	r0,cf4c <bigint_EEA_algo+0x120>
    cf38:	02 08 18 08 	or	r2,r24,r0
    cf3c:	03 08 1a 08 	or	r3,r26,r0
    cf40:	04 08 18 08 	or	r4,r24,r0
    cf44:	19 00 80 26 	lhi	r20,25;	[0xc800]
    cf48:	05 09 54 02 	ja	r18,r20,1044;	[0x414] 0xcc14 <bigint_ab_two>
    cf4c:	06 00 81 22 	ld32	r20,[r1,24]
    cf50:	01 00 94 32 	andi	r20,r20,1
    cf54:	ec 1b 14 10 	beqi	r20,0,cf08 <bigint_EEA_algo+0xdc>
    cf58:	0e 00 81 22 	ld32	r20,[r1,56]
    cf5c:	01 00 94 32 	andi	r20,r20,1
    cf60:	16 08 14 10 	bnei	r20,0,cfbc <bigint_EEA_algo+0x190>
    cf64:	20 00 21 03 	addi	r25,r1,32
    cf68:	60 00 01 03 	addi	r24,r1,96
    cf6c:	02 08 19 08 	or	r2,r25,r0
    cf70:	03 08 19 08 	or	r3,r25,r0
    cf74:	19 00 80 26 	lhi	r20,25;	[0xc800]
    cf78:	d1 08 54 02 	ja	r18,r20,836;	[0x344] 0xcb44 <bigint_div_two>
    cf7c:	1e 00 81 22 	ld32	r20,[r1,120]
    cf80:	01 00 94 32 	andi	r20,r20,1
    cf84:	05 08 14 10 	bnei	r20,0,cf9c <bigint_EEA_algo+0x170>
    cf88:	02 08 18 08 	or	r2,r24,r0
    cf8c:	03 08 18 08 	or	r3,r24,r0
    cf90:	19 00 80 26 	lhi	r20,25;	[0xc800]
    cf94:	d1 08 54 02 	ja	r18,r20,836;	[0x344] 0xcb44 <bigint_div_two>
    cf98:	05 00 00 14 	j	r0,cfb0 <bigint_EEA_algo+0x184>
    cf9c:	02 08 18 08 	or	r2,r24,r0
    cfa0:	03 08 1a 08 	or	r3,r26,r0
    cfa4:	04 08 18 08 	or	r4,r24,r0
    cfa8:	19 00 80 26 	lhi	r20,25;	[0xc800]
    cfac:	05 09 54 02 	ja	r18,r20,1044;	[0x414] 0xcc14 <bigint_ab_two>
    cfb0:	0e 00 81 22 	ld32	r20,[r1,56]
    cfb4:	01 00 94 32 	andi	r20,r20,1
    cfb8:	ec 1b 14 10 	beqi	r20,0,cf6c <bigint_EEA_algo+0x140>
    cfbc:	20 00 01 03 	addi	r24,r1,32
    cfc0:	02 08 01 08 	or	r2,r1,r0
    cfc4:	03 08 18 08 	or	r3,r24,r0
    cfc8:	18 00 80 26 	lhi	r20,24;	[0xc000]
    cfcc:	bb 09 54 02 	ja	r18,r20,1772;	[0x6ec] 0xc6ec <judge_bigint>
    cfd0:	15 18 02 10 	beqi	r2,0,d028 <bigint_EEA_algo+0x1fc>
    cfd4:	08 10 22 10 	blti	r2,1,cff8 <bigint_EEA_algo+0x1cc>
    cfd8:	02 08 01 08 	or	r2,r1,r0
    cfdc:	03 08 18 08 	or	r3,r24,r0
    cfe0:	04 08 01 08 	or	r4,r1,r0
    cfe4:	19 00 80 26 	lhi	r20,25;	[0xc800]
    cfe8:	1d 08 54 02 	ja	r18,r20,116;	[0x74] 0xc874 <bigint_sub>
    cfec:	40 00 a1 00 	addi	r5,r1,64
    cff0:	60 00 61 00 	addi	r3,r1,96
    cff4:	07 00 00 14 	j	r0,d014 <bigint_EEA_algo+0x1e8>
    cff8:	20 00 81 00 	addi	r4,r1,32
    cffc:	02 08 04 08 	or	r2,r4,r0
    d000:	03 08 01 08 	or	r3,r1,r0
    d004:	19 00 80 26 	lhi	r20,25;	[0xc800]
    d008:	1d 08 54 02 	ja	r18,r20,116;	[0x74] 0xc874 <bigint_sub>
    d00c:	60 00 a1 00 	addi	r5,r1,96
    d010:	40 00 61 00 	addi	r3,r1,64
    d014:	02 08 05 08 	or	r2,r5,r0
    d018:	04 08 1a 08 	or	r4,r26,r0
    d01c:	19 00 80 26 	lhi	r20,25;	[0xc800]
    d020:	8b 08 54 02 	ja	r18,r20,556;	[0x22c] 0xca2c <bigint_mod_sub>
    d024:	b4 ff 1f 14 	j	r0,cef8 <bigint_EEA_algo+0xcc>
    d028:	18 00 81 22 	ld32	r20,[r1,96]
    d02c:	14 04 1b 28 	sr32	r20,[r27,r0]
    d030:	19 00 81 22 	ld32	r20,[r1,100]
    d034:	01 04 9b 22 	sd32	r20,[r27,4]
    d038:	1a 00 81 22 	ld32	r20,[r1,104]
    d03c:	02 04 9b 22 	sd32	r20,[r27,8]
    d040:	1b 00 81 22 	ld32	r20,[r1,108]
    d044:	03 04 9b 22 	sd32	r20,[r27,12]
    d048:	1c 00 81 22 	ld32	r20,[r1,112]
    d04c:	04 04 9b 22 	sd32	r20,[r27,16]
    d050:	1d 00 81 22 	ld32	r20,[r1,116]
    d054:	05 04 9b 22 	sd32	r20,[r27,20]
    d058:	1e 00 81 22 	ld32	r20,[r1,120]
    d05c:	06 04 9b 22 	sd32	r20,[r27,24]
    d060:	20 00 41 22 	ld32	r18,[r1,128]
    d064:	21 00 01 23 	ld32	r24,[r1,132]
    d068:	22 00 21 23 	ld32	r25,[r1,136]
    d06c:	23 00 41 23 	ld32	r26,[r1,140]
    d070:	24 00 61 23 	ld32	r27,[r1,144]
    d074:	94 00 21 00 	addi	r1,r1,148
    d078:	00 08 12 00 	ja	r0,r18,0;	[0x0]

0000d07c <bigint_div>:
    d07c:	e0 03 21 00 	addi	r1,r1,-32
    d080:	07 04 61 23 	sd32	r27,[r1,28]
    d084:	06 04 41 23 	sd32	r26,[r1,24]
    d088:	05 04 21 23 	sd32	r25,[r1,20]
    d08c:	04 04 01 23 	sd32	r24,[r1,16]
    d090:	03 04 e1 22 	sd32	r23,[r1,12]
    d094:	02 04 c1 22 	sd32	r22,[r1,8]
    d098:	01 04 01 21 	sd32	r8,[r1,4]
    d09c:	12 04 01 28 	sr32	r18,[r1,r0]
    d0a0:	18 08 02 08 	or	r24,r2,r0
    d0a4:	1a 08 03 08 	or	r26,r3,r0
    d0a8:	19 08 04 08 	or	r25,r4,r0
    d0ac:	16 08 05 08 	or	r22,r5,r0
    d0b0:	18 00 80 26 	lhi	r20,24;	[0xc000]
    d0b4:	bb 09 54 02 	ja	r18,r20,1772;	[0x6ec] 0xc6ec <judge_bigint>
    d0b8:	1b 08 00 08 	or	r27,r0,r0
    d0bc:	00 1c 16 28 	sr8	r0,[r22,r0]
    d0c0:	14 10 02 10 	blti	r2,0,d114 <bigint_div+0x98>
    d0c4:	03 08 02 10 	bnei	r2,0,d0d4 <bigint_div+0x58>
    d0c8:	00 04 19 28 	sr32	r0,[r25,r0]
    d0cc:	01 00 60 53 	ori	r27,r0,1;	[0x1]
    d0d0:	1e 00 00 14 	j	r0,d14c <bigint_div+0xd0>
    d0d4:	1f 00 e0 26 	lhi	r23,31;	[0xf800]
    d0d8:	ff 07 f7 52 	ori	r23,r23,2047;	[0x7ff] 0xffff <ECCGF2m_point_add+0x2d7>
    d0dc:	01 00 00 51 	ori	r8,r0,1;	[0x1]
    d0e0:	02 08 18 08 	or	r2,r24,r0
    d0e4:	03 08 1a 08 	or	r3,r26,r0
    d0e8:	18 00 80 26 	lhi	r20,24;	[0xc000]
    d0ec:	bb 09 54 02 	ja	r18,r20,1772;	[0x6ec] 0xc6ec <judge_bigint>
    d0f0:	08 10 02 10 	blti	r2,0,d114 <bigint_div+0x98>
    d0f4:	02 08 18 08 	or	r2,r24,r0
    d0f8:	03 08 1a 08 	or	r3,r26,r0
    d0fc:	04 08 18 08 	or	r4,r24,r0
    d100:	19 00 80 26 	lhi	r20,25;	[0xc800]
    d104:	1d 08 54 02 	ja	r18,r20,116;	[0x74] 0xc874 <bigint_sub>
    d108:	01 00 7b 03 	addi	r27,r27,1
    d10c:	f4 23 77 1b 	bgeu	r23,r27,d0e0 <bigint_div+0x64>
    d110:	08 1c 16 28 	sr8	r8,[r22,r0]
    d114:	14 00 18 28 	lr32	r20,[r24,r0]
    d118:	14 04 19 28 	sr32	r20,[r25,r0]
    d11c:	01 00 98 22 	ld32	r20,[r24,4]
    d120:	01 04 99 22 	sd32	r20,[r25,4]
    d124:	02 00 98 22 	ld32	r20,[r24,8]
    d128:	02 04 99 22 	sd32	r20,[r25,8]
    d12c:	03 00 98 22 	ld32	r20,[r24,12]
    d130:	03 04 99 22 	sd32	r20,[r25,12]
    d134:	04 00 98 22 	ld32	r20,[r24,16]
    d138:	04 04 99 22 	sd32	r20,[r25,16]
    d13c:	05 00 98 22 	ld32	r20,[r24,20]
    d140:	05 04 99 22 	sd32	r20,[r25,20]
    d144:	06 00 98 22 	ld32	r20,[r24,24]
    d148:	06 04 99 22 	sd32	r20,[r25,24]
    d14c:	02 08 1b 08 	or	r2,r27,r0
    d150:	12 00 01 28 	lr32	r18,[r1,r0]
    d154:	01 00 01 21 	ld32	r8,[r1,4]
    d158:	02 00 c1 22 	ld32	r22,[r1,8]
    d15c:	03 00 e1 22 	ld32	r23,[r1,12]
    d160:	04 00 01 23 	ld32	r24,[r1,16]
    d164:	05 00 21 23 	ld32	r25,[r1,20]
    d168:	06 00 41 23 	ld32	r26,[r1,24]
    d16c:	07 00 61 23 	ld32	r27,[r1,28]
    d170:	20 00 21 00 	addi	r1,r1,32
    d174:	00 08 12 00 	ja	r0,r18,0;	[0x0]

0000d178 <bigint_mod_mul_int>:
    d178:	ec 03 21 00 	addi	r1,r1,-20
    d17c:	04 04 61 23 	sd32	r27,[r1,16]
    d180:	03 04 41 23 	sd32	r26,[r1,12]
    d184:	02 04 21 23 	sd32	r25,[r1,8]
    d188:	01 04 01 23 	sd32	r24,[r1,4]
    d18c:	12 04 01 28 	sr32	r18,[r1,r0]
    d190:	19 08 02 08 	or	r25,r2,r0
    d194:	1a 08 03 08 	or	r26,r3,r0
    d198:	1b 08 04 08 	or	r27,r4,r0
    d19c:	18 08 05 08 	or	r24,r5,r0
    d1a0:	14 00 19 28 	lr32	r20,[r25,r0]
    d1a4:	14 04 18 28 	sr32	r20,[r24,r0]
    d1a8:	01 00 99 22 	ld32	r20,[r25,4]
    d1ac:	01 04 98 22 	sd32	r20,[r24,4]
    d1b0:	02 00 99 22 	ld32	r20,[r25,8]
    d1b4:	02 04 98 22 	sd32	r20,[r24,8]
    d1b8:	03 00 99 22 	ld32	r20,[r25,12]
    d1bc:	03 04 98 22 	sd32	r20,[r24,12]
    d1c0:	04 00 99 22 	ld32	r20,[r25,16]
    d1c4:	04 04 98 22 	sd32	r20,[r24,16]
    d1c8:	05 00 99 22 	ld32	r20,[r25,20]
    d1cc:	05 04 98 22 	sd32	r20,[r24,20]
    d1d0:	06 00 99 22 	ld32	r20,[r25,24]
    d1d4:	06 04 98 22 	sd32	r20,[r24,24]
    d1d8:	08 30 5a 10 	bltui	r26,2,d1fc <bigint_mod_mul_int+0x84>
    d1dc:	02 08 18 08 	or	r2,r24,r0
    d1e0:	03 08 19 08 	or	r3,r25,r0
    d1e4:	04 08 1b 08 	or	r4,r27,r0
    d1e8:	05 08 18 08 	or	r5,r24,r0
    d1ec:	19 00 80 26 	lhi	r20,25;	[0xc800]
    d1f0:	73 08 54 02 	ja	r18,r20,460;	[0x1cc] 0xc9cc <bigint_mod_add>
    d1f4:	ff 03 5a 03 	addi	r26,r26,-1
    d1f8:	f8 23 5a 10 	bgeui	r26,2,d1dc <bigint_mod_mul_int+0x64>
    d1fc:	12 00 01 28 	lr32	r18,[r1,r0]
    d200:	01 00 01 23 	ld32	r24,[r1,4]
    d204:	02 00 21 23 	ld32	r25,[r1,8]
    d208:	03 00 41 23 	ld32	r26,[r1,12]
    d20c:	04 00 61 23 	ld32	r27,[r1,16]
    d210:	14 00 21 00 	addi	r1,r1,20
    d214:	00 08 12 00 	ja	r0,r18,0;	[0x0]

0000d218 <bigint_mod_val>:
    d218:	f0 03 21 00 	addi	r1,r1,-16
    d21c:	03 04 41 23 	sd32	r26,[r1,12]
    d220:	02 04 21 23 	sd32	r25,[r1,8]
    d224:	01 04 01 23 	sd32	r24,[r1,4]
    d228:	12 04 01 28 	sr32	r18,[r1,r0]
    d22c:	19 08 02 08 	or	r25,r2,r0
    d230:	1a 08 03 08 	or	r26,r3,r0
    d234:	18 08 04 08 	or	r24,r4,r0
    d238:	14 18 38 1b 	beq	r24,r25,d28c <bigint_mod_val+0x74>
    d23c:	14 00 19 28 	lr32	r20,[r25,r0]
    d240:	14 04 18 28 	sr32	r20,[r24,r0]
    d244:	01 00 99 22 	ld32	r20,[r25,4]
    d248:	01 04 98 22 	sd32	r20,[r24,4]
    d24c:	02 00 99 22 	ld32	r20,[r25,8]
    d250:	02 04 98 22 	sd32	r20,[r24,8]
    d254:	03 00 99 22 	ld32	r20,[r25,12]
    d258:	03 04 98 22 	sd32	r20,[r24,12]
    d25c:	04 00 99 22 	ld32	r20,[r25,16]
    d260:	04 04 98 22 	sd32	r20,[r24,16]
    d264:	05 00 99 22 	ld32	r20,[r25,20]
    d268:	05 04 98 22 	sd32	r20,[r24,20]
    d26c:	06 00 99 22 	ld32	r20,[r25,24]
    d270:	06 04 98 22 	sd32	r20,[r24,24]
    d274:	05 00 00 14 	j	r0,d28c <bigint_mod_val+0x74>
    d278:	02 08 19 08 	or	r2,r25,r0
    d27c:	03 08 1a 08 	or	r3,r26,r0
    d280:	04 08 18 08 	or	r4,r24,r0
    d284:	19 00 80 26 	lhi	r20,25;	[0xc800]
    d288:	1d 08 54 02 	ja	r18,r20,116;	[0x74] 0xc874 <bigint_sub>
    d28c:	02 08 18 08 	or	r2,r24,r0
    d290:	03 08 1a 08 	or	r3,r26,r0
    d294:	18 00 80 26 	lhi	r20,24;	[0xc000]
    d298:	bb 09 54 02 	ja	r18,r20,1772;	[0x6ec] 0xc6ec <judge_bigint>
    d29c:	f6 03 02 10 	bgei	r2,0,d278 <bigint_mod_val+0x60>
    d2a0:	12 00 01 28 	lr32	r18,[r1,r0]
    d2a4:	01 00 01 23 	ld32	r24,[r1,4]
    d2a8:	02 00 21 23 	ld32	r25,[r1,8]
    d2ac:	03 00 41 23 	ld32	r26,[r1,12]
    d2b0:	10 00 21 00 	addi	r1,r1,16
    d2b4:	00 08 12 00 	ja	r0,r18,0;	[0x0]

0000d2b8 <judge_ECC_null>:
    d2b8:	f8 03 21 00 	addi	r1,r1,-8
    d2bc:	01 04 01 23 	sd32	r24,[r1,4]
    d2c0:	12 04 01 28 	sr32	r18,[r1,r0]
    d2c4:	18 08 02 08 	or	r24,r2,r0
    d2c8:	18 00 80 26 	lhi	r20,24;	[0xc000]
    d2cc:	ec 09 54 02 	ja	r18,r20,1968;	[0x7b0] 0xc7b0 <judge_bigint_null>
    d2d0:	14 08 02 08 	or	r20,r2,r0
    d2d4:	04 18 14 10 	beqi	r20,0,d2e8 <judge_ECC_null+0x30>
    d2d8:	1c 00 58 00 	addi	r2,r24,28
    d2dc:	18 00 80 26 	lhi	r20,24;	[0xc000]
    d2e0:	ec 09 54 02 	ja	r18,r20,1968;	[0x7b0] 0xc7b0 <judge_bigint_null>
    d2e4:	02 08 00 08 	or	r2,r0,r0
    d2e8:	12 00 01 28 	lr32	r18,[r1,r0]
    d2ec:	01 00 01 23 	ld32	r24,[r1,4]
    d2f0:	08 00 21 00 	addi	r1,r1,8
    d2f4:	00 08 12 00 	ja	r0,r18,0;	[0x0]

0000d2f8 <ecc_curve_double>:
    d2f8:	5c 03 21 00 	addi	r1,r1,-164
    d2fc:	28 04 61 23 	sd32	r27,[r1,160]
    d300:	27 04 41 23 	sd32	r26,[r1,156]
    d304:	26 04 21 23 	sd32	r25,[r1,152]
    d308:	25 04 01 23 	sd32	r24,[r1,148]
    d30c:	24 04 e1 22 	sd32	r23,[r1,144]
    d310:	23 04 c1 22 	sd32	r22,[r1,140]
    d314:	22 04 21 21 	sd32	r9,[r1,136]
    d318:	21 04 01 21 	sd32	r8,[r1,132]
    d31c:	20 04 41 22 	sd32	r18,[r1,128]
    d320:	09 08 02 08 	or	r9,r2,r0
    d324:	19 08 03 08 	or	r25,r3,r0
    d328:	08 08 04 08 	or	r8,r4,r0
    d32c:	03 08 09 08 	or	r3,r9,r0
    d330:	04 08 19 08 	or	r4,r25,r0
    d334:	05 08 01 08 	or	r5,r1,r0
    d338:	19 00 80 26 	lhi	r20,25;	[0xc800]
    d33c:	7a 09 54 02 	ja	r18,r20,1512;	[0x5e8] 0xcde8 <bigint_mod_mul>
    d340:	40 00 e1 02 	addi	r23,r1,64
    d344:	02 08 01 08 	or	r2,r1,r0
    d348:	03 08 01 08 	or	r3,r1,r0
    d34c:	04 08 19 08 	or	r4,r25,r0
    d350:	05 08 17 08 	or	r5,r23,r0
    d354:	19 00 80 26 	lhi	r20,25;	[0xc800]
    d358:	73 08 54 02 	ja	r18,r20,460;	[0x1cc] 0xc9cc <bigint_mod_add>
    d35c:	02 08 17 08 	or	r2,r23,r0
    d360:	03 08 01 08 	or	r3,r1,r0
    d364:	04 08 19 08 	or	r4,r25,r0
    d368:	05 08 01 08 	or	r5,r1,r0
    d36c:	19 00 80 26 	lhi	r20,25;	[0xc800]
    d370:	73 08 54 02 	ja	r18,r20,460;	[0x1cc] 0xc9cc <bigint_mod_add>
    d374:	38 00 c9 02 	addi	r22,r9,56
    d378:	20 00 41 03 	addi	r26,r1,32
    d37c:	02 08 16 08 	or	r2,r22,r0
    d380:	03 08 16 08 	or	r3,r22,r0
    d384:	04 08 19 08 	or	r4,r25,r0
    d388:	05 08 1a 08 	or	r5,r26,r0
    d38c:	19 00 80 26 	lhi	r20,25;	[0xc800]
    d390:	7a 09 54 02 	ja	r18,r20,1512;	[0x5e8] 0xcde8 <bigint_mod_mul>
    d394:	02 08 1a 08 	or	r2,r26,r0
    d398:	03 08 1a 08 	or	r3,r26,r0
    d39c:	04 08 19 08 	or	r4,r25,r0
    d3a0:	05 08 1a 08 	or	r5,r26,r0
    d3a4:	19 00 80 26 	lhi	r20,25;	[0xc800]
    d3a8:	7a 09 54 02 	ja	r18,r20,1512;	[0x5e8] 0xcde8 <bigint_mod_mul>
    d3ac:	4d 00 40 24 	lhi	r2,77;	[0x26800]
    d3b0:	6c 04 42 50 	ori	r2,r2,1132;	[0x46c] 0x26c6c <ECC_a>
    d3b4:	03 08 1a 08 	or	r3,r26,r0
    d3b8:	04 08 19 08 	or	r4,r25,r0
    d3bc:	05 08 1a 08 	or	r5,r26,r0
    d3c0:	19 00 80 26 	lhi	r20,25;	[0xc800]
    d3c4:	7a 09 54 02 	ja	r18,r20,1512;	[0x5e8] 0xcde8 <bigint_mod_mul>
    d3c8:	02 08 01 08 	or	r2,r1,r0
    d3cc:	03 08 1a 08 	or	r3,r26,r0
    d3d0:	04 08 19 08 	or	r4,r25,r0
    d3d4:	05 08 01 08 	or	r5,r1,r0
    d3d8:	19 00 80 26 	lhi	r20,25;	[0xc800]
    d3dc:	73 08 54 02 	ja	r18,r20,460;	[0x1cc] 0xc9cc <bigint_mod_add>
    d3e0:	1c 00 69 03 	addi	r27,r9,28
    d3e4:	38 00 08 03 	addi	r24,r8,56
    d3e8:	02 08 1b 08 	or	r2,r27,r0
    d3ec:	03 08 16 08 	or	r3,r22,r0
    d3f0:	04 08 19 08 	or	r4,r25,r0
    d3f4:	05 08 18 08 	or	r5,r24,r0
    d3f8:	19 00 80 26 	lhi	r20,25;	[0xc800]
    d3fc:	7a 09 54 02 	ja	r18,r20,1512;	[0x5e8] 0xcde8 <bigint_mod_mul>
    d400:	02 08 18 08 	or	r2,r24,r0
    d404:	03 08 19 08 	or	r3,r25,r0
    d408:	04 08 18 08 	or	r4,r24,r0
    d40c:	19 00 80 26 	lhi	r20,25;	[0xc800]
    d410:	af 08 54 02 	ja	r18,r20,700;	[0x2bc] 0xcabc <bigint_mod_mul_two>
    d414:	60 00 01 03 	addi	r24,r1,96
    d418:	02 08 1b 08 	or	r2,r27,r0
    d41c:	03 08 1b 08 	or	r3,r27,r0
    d420:	04 08 19 08 	or	r4,r25,r0
    d424:	05 08 18 08 	or	r5,r24,r0
    d428:	19 00 80 26 	lhi	r20,25;	[0xc800]
    d42c:	7a 09 54 02 	ja	r18,r20,1512;	[0x5e8] 0xcde8 <bigint_mod_mul>
    d430:	02 08 18 08 	or	r2,r24,r0
    d434:	03 08 09 08 	or	r3,r9,r0
    d438:	04 08 19 08 	or	r4,r25,r0
    d43c:	05 08 1a 08 	or	r5,r26,r0
    d440:	19 00 80 26 	lhi	r20,25;	[0xc800]
    d444:	7a 09 54 02 	ja	r18,r20,1512;	[0x5e8] 0xcde8 <bigint_mod_mul>
    d448:	02 08 1a 08 	or	r2,r26,r0
    d44c:	03 08 19 08 	or	r3,r25,r0
    d450:	04 08 1a 08 	or	r4,r26,r0
    d454:	19 00 80 26 	lhi	r20,25;	[0xc800]
    d458:	af 08 54 02 	ja	r18,r20,700;	[0x2bc] 0xcabc <bigint_mod_mul_two>
    d45c:	02 08 1a 08 	or	r2,r26,r0
    d460:	03 08 19 08 	or	r3,r25,r0
    d464:	04 08 1a 08 	or	r4,r26,r0
    d468:	19 00 80 26 	lhi	r20,25;	[0xc800]
    d46c:	af 08 54 02 	ja	r18,r20,700;	[0x2bc] 0xcabc <bigint_mod_mul_two>
    d470:	02 08 18 08 	or	r2,r24,r0
    d474:	03 08 18 08 	or	r3,r24,r0
    d478:	04 08 19 08 	or	r4,r25,r0
    d47c:	05 08 17 08 	or	r5,r23,r0
    d480:	19 00 80 26 	lhi	r20,25;	[0xc800]
    d484:	7a 09 54 02 	ja	r18,r20,1512;	[0x5e8] 0xcde8 <bigint_mod_mul>
    d488:	02 08 17 08 	or	r2,r23,r0
    d48c:	03 08 19 08 	or	r3,r25,r0
    d490:	04 08 17 08 	or	r4,r23,r0
    d494:	19 00 80 26 	lhi	r20,25;	[0xc800]
    d498:	af 08 54 02 	ja	r18,r20,700;	[0x2bc] 0xcabc <bigint_mod_mul_two>
    d49c:	02 08 17 08 	or	r2,r23,r0
    d4a0:	03 08 19 08 	or	r3,r25,r0
    d4a4:	04 08 17 08 	or	r4,r23,r0
    d4a8:	19 00 80 26 	lhi	r20,25;	[0xc800]
    d4ac:	af 08 54 02 	ja	r18,r20,700;	[0x2bc] 0xcabc <bigint_mod_mul_two>
    d4b0:	02 08 17 08 	or	r2,r23,r0
    d4b4:	03 08 19 08 	or	r3,r25,r0
    d4b8:	04 08 17 08 	or	r4,r23,r0
    d4bc:	19 00 80 26 	lhi	r20,25;	[0xc800]
    d4c0:	af 08 54 02 	ja	r18,r20,700;	[0x2bc] 0xcabc <bigint_mod_mul_two>
    d4c4:	02 08 01 08 	or	r2,r1,r0
    d4c8:	03 08 01 08 	or	r3,r1,r0
    d4cc:	04 08 19 08 	or	r4,r25,r0
    d4d0:	05 08 18 08 	or	r5,r24,r0
    d4d4:	19 00 80 26 	lhi	r20,25;	[0xc800]
    d4d8:	7a 09 54 02 	ja	r18,r20,1512;	[0x5e8] 0xcde8 <bigint_mod_mul>
    d4dc:	02 08 1a 08 	or	r2,r26,r0
    d4e0:	03 08 19 08 	or	r3,r25,r0
    d4e4:	04 08 08 08 	or	r4,r8,r0
    d4e8:	19 00 80 26 	lhi	r20,25;	[0xc800]
    d4ec:	af 08 54 02 	ja	r18,r20,700;	[0x2bc] 0xcabc <bigint_mod_mul_two>
    d4f0:	02 08 18 08 	or	r2,r24,r0
    d4f4:	03 08 08 08 	or	r3,r8,r0
    d4f8:	04 08 19 08 	or	r4,r25,r0
    d4fc:	05 08 08 08 	or	r5,r8,r0
    d500:	19 00 80 26 	lhi	r20,25;	[0xc800]
    d504:	8b 08 54 02 	ja	r18,r20,556;	[0x22c] 0xca2c <bigint_mod_sub>
    d508:	02 08 1a 08 	or	r2,r26,r0
    d50c:	03 08 08 08 	or	r3,r8,r0
    d510:	04 08 19 08 	or	r4,r25,r0
    d514:	05 08 1a 08 	or	r5,r26,r0
    d518:	19 00 80 26 	lhi	r20,25;	[0xc800]
    d51c:	8b 08 54 02 	ja	r18,r20,556;	[0x22c] 0xca2c <bigint_mod_sub>
    d520:	02 08 01 08 	or	r2,r1,r0
    d524:	03 08 1a 08 	or	r3,r26,r0
    d528:	04 08 19 08 	or	r4,r25,r0
    d52c:	05 08 01 08 	or	r5,r1,r0
    d530:	19 00 80 26 	lhi	r20,25;	[0xc800]
    d534:	7a 09 54 02 	ja	r18,r20,1512;	[0x5e8] 0xcde8 <bigint_mod_mul>
    d538:	1c 00 08 01 	addi	r8,r8,28
    d53c:	02 08 01 08 	or	r2,r1,r0
    d540:	03 08 17 08 	or	r3,r23,r0
    d544:	04 08 19 08 	or	r4,r25,r0
    d548:	05 08 08 08 	or	r5,r8,r0
    d54c:	19 00 80 26 	lhi	r20,25;	[0xc800]
    d550:	8b 08 54 02 	ja	r18,r20,556;	[0x22c] 0xca2c <bigint_mod_sub>
    d554:	20 00 41 22 	ld32	r18,[r1,128]
    d558:	21 00 01 21 	ld32	r8,[r1,132]
    d55c:	22 00 21 21 	ld32	r9,[r1,136]
    d560:	23 00 c1 22 	ld32	r22,[r1,140]
    d564:	24 00 e1 22 	ld32	r23,[r1,144]
    d568:	25 00 01 23 	ld32	r24,[r1,148]
    d56c:	26 00 21 23 	ld32	r25,[r1,152]
    d570:	27 00 41 23 	ld32	r26,[r1,156]
    d574:	28 00 61 23 	ld32	r27,[r1,160]
    d578:	a4 00 21 00 	addi	r1,r1,164
    d57c:	00 08 12 00 	ja	r0,r18,0;	[0x0]

0000d580 <ecc_curve_add>:
    d580:	18 03 21 00 	addi	r1,r1,-232
    d584:	39 04 61 23 	sd32	r27,[r1,228]
    d588:	38 04 41 23 	sd32	r26,[r1,224]
    d58c:	37 04 21 23 	sd32	r25,[r1,220]
    d590:	36 04 01 23 	sd32	r24,[r1,216]
    d594:	35 04 e1 22 	sd32	r23,[r1,212]
    d598:	34 04 c1 22 	sd32	r22,[r1,208]
    d59c:	33 04 41 21 	sd32	r10,[r1,204]
    d5a0:	32 04 21 21 	sd32	r9,[r1,200]
    d5a4:	31 04 01 21 	sd32	r8,[r1,196]
    d5a8:	30 04 41 22 	sd32	r18,[r1,192]
    d5ac:	1a 08 02 08 	or	r26,r2,r0
    d5b0:	19 08 03 08 	or	r25,r3,r0
    d5b4:	09 08 04 08 	or	r9,r4,r0
    d5b8:	0a 08 05 08 	or	r10,r5,r0
    d5bc:	38 00 19 01 	addi	r8,r25,56
    d5c0:	80 00 01 03 	addi	r24,r1,128
    d5c4:	02 08 08 08 	or	r2,r8,r0
    d5c8:	03 08 08 08 	or	r3,r8,r0
    d5cc:	05 08 18 08 	or	r5,r24,r0
    d5d0:	19 00 80 26 	lhi	r20,25;	[0xc800]
    d5d4:	7a 09 54 02 	ja	r18,r20,1512;	[0x5e8] 0xcde8 <bigint_mod_mul>
    d5d8:	02 08 18 08 	or	r2,r24,r0
    d5dc:	03 08 1a 08 	or	r3,r26,r0
    d5e0:	04 08 09 08 	or	r4,r9,r0
    d5e4:	05 08 01 08 	or	r5,r1,r0
    d5e8:	19 00 80 26 	lhi	r20,25;	[0xc800]
    d5ec:	7a 09 54 02 	ja	r18,r20,1512;	[0x5e8] 0xcde8 <bigint_mod_mul>
    d5f0:	1c 00 5a 00 	addi	r2,r26,28
    d5f4:	40 00 c1 02 	addi	r22,r1,64
    d5f8:	03 08 08 08 	or	r3,r8,r0
    d5fc:	04 08 09 08 	or	r4,r9,r0
    d600:	05 08 16 08 	or	r5,r22,r0
    d604:	19 00 80 26 	lhi	r20,25;	[0xc800]
    d608:	7a 09 54 02 	ja	r18,r20,1512;	[0x5e8] 0xcde8 <bigint_mod_mul>
    d60c:	02 08 16 08 	or	r2,r22,r0
    d610:	03 08 18 08 	or	r3,r24,r0
    d614:	04 08 09 08 	or	r4,r9,r0
    d618:	05 08 16 08 	or	r5,r22,r0
    d61c:	19 00 80 26 	lhi	r20,25;	[0xc800]
    d620:	7a 09 54 02 	ja	r18,r20,1512;	[0x5e8] 0xcde8 <bigint_mod_mul>
    d624:	38 00 5a 03 	addi	r26,r26,56
    d628:	02 08 1a 08 	or	r2,r26,r0
    d62c:	03 08 1a 08 	or	r3,r26,r0
    d630:	04 08 09 08 	or	r4,r9,r0
    d634:	05 08 18 08 	or	r5,r24,r0
    d638:	19 00 80 26 	lhi	r20,25;	[0xc800]
    d63c:	7a 09 54 02 	ja	r18,r20,1512;	[0x5e8] 0xcde8 <bigint_mod_mul>
    d640:	20 00 e1 02 	addi	r23,r1,32
    d644:	02 08 18 08 	or	r2,r24,r0
    d648:	03 08 19 08 	or	r3,r25,r0
    d64c:	04 08 09 08 	or	r4,r9,r0
    d650:	05 08 17 08 	or	r5,r23,r0
    d654:	19 00 80 26 	lhi	r20,25;	[0xc800]
    d658:	7a 09 54 02 	ja	r18,r20,1512;	[0x5e8] 0xcde8 <bigint_mod_mul>
    d65c:	1c 00 39 03 	addi	r25,r25,28
    d660:	60 00 61 03 	addi	r27,r1,96
    d664:	02 08 19 08 	or	r2,r25,r0
    d668:	03 08 1a 08 	or	r3,r26,r0
    d66c:	04 08 09 08 	or	r4,r9,r0
    d670:	05 08 1b 08 	or	r5,r27,r0
    d674:	19 00 80 26 	lhi	r20,25;	[0xc800]
